(dp0
S'stock'
p1
I4
sS'northside'
p2
I4
sS'all'
p3
I103
sS'managed'
p4
I19
sS'eleven'
p5
I9
sS'chinese'
p6
I382
sS'potsticker'
p7
I18
sS'both'
p8
I19
sS'dollar'
p9
I128
sS'four'
p10
I46
sS'desserts'
p11
I5
sS'burritos'
p12
I19
sS'mile'
p13
I128
sS'asian'
p14
I147
sS'vary'
p15
I6
sS'go'
p16
I1197
sS'barbecue'
p17
I139
sS'edy'
p18
I23
sS'increase'
p19
I7
sS'guerrero'
p20
I22
sS'pasand'
p21
I63
sS'million'
p22
I3
sS'vietnamese'
p23
I42
sS'concerned'
p24
I14
sS'father'
p25
I27
sS'thursday'
p26
I89
sS'to'
p27
I5735
sS'depending'
p28
I7
sS'under'
p29
I135
sS'weather'
p30
I8
sS'sorry'
p31
I4
sS'lilly'
p32
I41
sS'solano'
p33
I13
sS'restoran'
p34
I15
sS'waiters'
p35
I5
sS'ta'
p36
I8
sS'town'
p37
I17
sS'arinell'
p38
I19
sS'confirmation'
p39
I6
sS'louder'
p40
I3
sS'garden'
p41
I32
sS'without'
p42
I3
sS'far'
p43
I197
sS'dessert'
p44
I38
sS"kip's"
p45
I12
sS'none'
p46
I9
sS'fat'
p47
I74
sS'tacos'
p48
I3
sS'telephone'
p49
I6
sS'spoon'
p50
I8
sS'every'
p51
I11
sS'm__s__g'
p52
I6
sS'ticket'
p53
I24
sS'screaming'
p54
I8
sS'minute'
p55
I36
sS'dim'
p56
I12
sS'weeknights'
p57
I6
sS'salad'
p58
I41
sS'did'
p59
I79
sS'having'
p60
I30
sS'list'
p61
I448
sS'wednesday'
p62
I156
sS'able'
p63
I3
sS'strada'
p64
I7
sS'try'
p65
I162
sS'frozen'
p66
I4
sS"bucci's"
p67
I19
sS'subway'
p68
I5
sS'norteno'
p69
I24
sS'sayang'
p70
I21
sS'quick'
p71
I15
sS'round'
p72
I20
sS'ahead'
p73
I4
sS'pork'
p74
I3
sS'work'
p75
I29
sS'says'
p76
I6
sS'villa'
p77
I52
sS'ten'
p78
I910
sS'chez'
p79
I135
sS'japanese'
p80
I162
sS'landmark'
p81
I5
sS'past'
p82
I21
sS'burger'
p83
I34
sS'second'
p84
I6
sS'cost'
p85
I403
sS'traveling'
p86
I6
sS"cambodiana's"
p87
I10
sS'further'
p88
I55
sS'cactus'
p89
I53
sS'icsi'
p90
I680
sS'drinks'
p91
I24
sS'blue'
p92
I67
sS'will'
p93
I56
sS'what'
p94
I803
sS'bakeshop'
p95
I4
sS'appear'
p96
I5
sS'chicago'
p97
I11
sS'tuesdays'
p98
I5
sS'sum'
p99
I12
sS'cooking'
p100
I5
sS'while'
p101
I3
sS'asia'
p102
I4
sS'switch'
p103
I3
sS'hungry'
p104
I22
sS'indian'
p105
I338
sS'costing'
p106
I8
sS'ko'
p107
I23
sS'new'
p108
I6
sS';'
p109
I5
sS'sun-hong-kong'
p110
I50
sS'med'
p111
I5
sS'full'
p112
I7
sS"c'mon"
p113
I3
sS"carl's"
p114
I7
sS'asada'
p115
I3
sS'pancakes'
p116
I14
sS'mel'
p117
I20
sS'even'
p118
I9
sS'overstatement'
p119
I7
sS'gilman'
p120
I14
sS'french'
p121
I184
sS'water'
p122
I41
sS'ching'
p123
I9
sS'let'
p124
I439
sS'berkeley'
p125
I473
sS'fred'
p126
I3
sS'fifteen'
p127
I340
sS'change'
p128
I22
sS'wait'
p129
I11
sS'matching'
p130
I4
sS'great'
p131
I36
sS"edy's"
p132
I21
sS"oliveto's"
p133
I8
sS'thirty'
p134
I266
sS"fred's"
p135
I10
sS'institute'
p136
I7
sS'items'
p137
I5
sS'vegetarian'
p138
I256
sS'turkish'
p139
I23
sS'tambo'
p140
I23
sS'amount'
p141
I14
sS'lasagna'
p142
I6
sS'weekday'
p143
I13
sS'volga'
p144
I15
sS'yorkshire'
p145
I24
sS'had'
p146
I16
sS'entrees'
p147
I13
sS'king'
p148
I57
sS'named'
p149
I10
sS'apple'
p150
I41
sS'spenger'
p151
I6
sS'ethiopian'
p152
I52
sS'excuse'
p153
I11
sS'sixty'
p154
I32
sS'ninety'
p155
I17
sS'names'
p156
I7
sS'duck'
p157
I5
sS'hamburger'
p158
I38
sS"yoshi's"
p159
I6
sS'hunan'
p160
I4
sS'cha'
p161
I52
sS'elmwood'
p162
I55
sS'from'
p163
I873
sS'russell'
p164
I7
sS'would'
p165
I1685
sS'iraqi'
p166
I21
sS'always'
p167
I9
sS'donuts'
p168
I5
sS'until'
p169
I8
sS'snacks'
p170
I6
sS'visit'
p171
I9
sS'two'
p172
I167
sS'cannibal'
p173
I7
sS'next'
p174
I127
sS'chief'
p175
I4
sS'arabian'
p176
I4
sS'music'
p177
I4
sS'telegraph'
p178
I21
sS'wondering'
p179
I4
sS'recommend'
p180
I21
sS'australian'
p181
I35
sS'greasy'
p182
I11
sS'type'
p183
I138
sS'tell'
p184
I1065
sS'today'
p185
I199
sS'more'
p186
I1443
sS'sort'
p187
I4
sS"apple's"
p188
I12
sS'yes'
p189
I18
sS'sujatha'
p190
I39
sS'rich'
p191
I18
sS"mel's"
p192
I12
sS'mid-price'
p193
I9
sS'giovanni'
p194
I132
sS'fruits'
p195
I4
sS'israel'
p196
I4
sS'ooh'
p197
I10
sS'ristorante'
p198
I40
sS'downtown'
p199
I21
sS'glass'
p200
I9
sS'everywhere'
p201
I16
sS'excellent'
p202
I3
sS'hurry'
p203
I9
sS'nineteen'
p204
I52
sS'bill'
p205
I3
sS'cake'
p206
I6
sS'must'
p207
I15
sS'me'
p208
I1989
sS'grill'
p209
I39
sS'account'
p210
I9
sS'hour'
p211
I142
sS'cheapest'
p212
I49
sS'this'
p213
I227
sS'car'
p214
I101
sS'getting'
p215
I12
sS'san__francisco'
p216
I10
sS'soul'
p217
I9
sS'soup'
p218
I50
sS'mall'
p219
I4
sS'anywhere'
p220
I156
sS'nine'
p221
I14
sS'can'
p222
I953
sS'sizzler'
p223
I10
sS'vegi'
p224
I81
sS'my'
p225
I169
sS'fettucini'
p226
I5
sS'nino'
p227
I8
sS'barclay'
p228
I4
sS'nearest'
p229
I10
sS'omelets'
p230
I30
sS'plate'
p231
I35
sS'favorite'
p232
I33
sS'sense'
p233
I7
sS'terrible'
p234
I4
sS'high'
p235
I6
sS'heard'
p236
I4
sS'foods'
p237
I15
sS'way'
p238
I38
sS'something'
p239
I309
sS'want'
p240
I1959
sS'cantonese'
p241
I9
sS'tao'
p242
I10
sS'hamburgers'
p243
I25
sS'preferably'
p244
I4
sS'information'
p245
I571
sS'end'
p246
I4
sS'sit'
p247
I4
sS'dinners'
p248
I9
sS'travel'
p249
I210
sS'six'
p250
I91
sS'range'
p251
I87
sS'how'
p252
I595
sS'sunday'
p253
I209
sS'query'
p254
I9
sS'party'
p255
I10
sS'fourth'
p256
I25
sS'skates'
p257
I24
sS'instead'
p258
I36
sS'pizza'
p259
I243
sS'product'
p260
I4
sS'sandwich'
p261
I60
sS'okay'
p262
I571
sS'fu'
p263
I10
sS'albany'
p264
I4
sS'may'
p265
I35
sS'cancun'
p266
I58
sS'after'
p267
I36
sS'southern'
p268
I9
sS'them'
p269
I4
sS'lab'
p270
I4
sS'santa'
p271
I18
sS'wrong'
p272
I18
sS'fe'
p273
I18
sS'marina'
p274
I20
sS'taco'
p275
I3
sS'date'
p276
I20
sS'such'
p277
I10
sS'choice'
p278
I3
sS'authentic'
p279
I14
sS'shattuck'
p280
I54
sS'types'
p281
I8
sS'a'
p282
I2566
sS'short'
p283
I26
sS'tsing'
p284
I10
sS'remember'
p285
I10
sS"shilpa's"
p286
I5
sS'maybe'
p287
I94
sS'mediterranee'
p288
I42
sS'anytime'
p289
I11
sS'nefeli'
p290
I32
sS'greek'
p291
I117
sS'bakery'
p292
I15
sS'au-coquelet'
p293
I44
sS'goodbye'
p294
I4
sS'things'
p295
I5
sS'first'
p296
I21
sS'dream'
p297
I3
sS'make'
p298
I98
sS'wine'
p299
I26
sS'no.'
p300
I14
sS'serving'
p301
I39
sS'mexican'
p302
I237
sS'help'
p303
I31
sS'over'
p304
I722
sS'midnight'
p305
I26
sS'soon'
p306
I8
sS'teashop'
p307
I20
sS'kong'
p308
I79
sS'spats'
p309
I60
sS'wiener'
p310
I3
sS'through'
p311
I12
sS'signs'
p312
I3
sS'austrian'
p313
I12
sS'still'
p314
I33
sS'avenue'
p315
I65
sS'its'
p316
I10
sS'before'
p317
I26
sS'style'
p318
I15
sS'le'
p319
I75
sS'thank'
p320
I53
sS'greasiest'
p321
I3
sS'la'
p322
I229
sS'somewhere'
p323
I93
sS'bastille'
p324
I12
sS'actually'
p325
I41
sS'better'
p326
I25
sS'milvia'
p327
I15
sS'willing'
p328
I253
sS"gertie's"
p329
I15
sS'listing'
p330
I7
sS'total'
p331
I13
sS'pad'
p332
I7
sS'weeks'
p333
I14
sS'bye'
p334
I9
sS'might'
p335
I16
sS'easier'
p336
I12
sS'then'
p337
I38
sS'coffee'
p338
I61
sS'good'
p339
I322
sS'somebody'
p340
I14
sS'food'
p341
I2427
sS'fiesta'
p342
I20
sS'lunch'
p343
I772
sS'heike'
p344
I22
sS'flint'
p345
I27
sS'they'
p346
I164
sS'half'
p347
I132
sS'foot'
p348
I20
sS'now'
p349
I127
sS'day'
p350
I183
sS'delicatessen'
p351
I9
sS'nadine'
p352
I18
sS'armenian'
p353
I21
sS'meat'
p354
I45
sS'sundays'
p355
I42
sS'bette'
p356
I67
sS'university'
p357
I36
sS'drop'
p358
I16
sS'chuck'
p359
I12
sS'margaritas'
p360
I14
sS'panini'
p361
I22
sS'cerrito'
p362
I4
sS'roast'
p363
I11
sS'rock'
p364
I7
sS'address'
p365
I5
sS'went'
p366
I49
sS'quarter'
p367
I9
sS'meal'
p368
I230
sS'mean'
p369
I9
sS'el'
p370
I4
sS'salsa'
p371
I4
sS'bucci'
p372
I14
sS'upstairs'
p373
I6
sS'house'
p374
I199
sS'fish'
p375
I57
sS'venezia'
p376
I106
sS'yeah'
p377
I34
sS'brother'
p378
I9
sS'each'
p379
I6
sS'persian'
p380
I45
sS'gave'
p381
I18
sS'thirteen'
p382
I8
sS'forgot'
p383
I27
sS'mediumly'
p384
I3
sS'blocks'
p385
I160
sS'morning'
p386
I31
sS'salads'
p387
I7
sS'saturday'
p388
I316
sS'really'
p389
I145
sS'pepito'
p390
I15
sS'gon'
p391
I11
sS'alcohol'
p392
I6
sS"'"
p393
I72
sS'entertainment'
p394
I10
sS'open'
p395
I279
sS'since'
p396
I4
sS'kensington'
p397
I3
sS'forty'
p398
I79
sS'entree'
p399
I3
sS'gramma'
p400
I8
sS'looking'
p401
I239
sS'stupid'
p402
I5
sS'oriental'
p403
I54
sS'got'
p404
I63
sS'cause'
p405
I7
sS'brewery'
p406
I7
sS'red'
p407
I7
sS'flashy'
p408
I9
sS'bistro'
p409
I14
sS'kip'
p410
I4
sS'shit'
p411
I7
sS'someplace'
p412
I25
sS'friday'
p413
I225
sS'little'
p414
I50
sS'free'
p415
I5
sS'quite'
p416
I6
sS'fourteen'
p417
I13
sS'california'
p418
I172
sS'carl'
p419
I21
sS'ask'
p420
I23
sS'wanted'
p421
I65
sS'westside'
p422
I15
sS'seventy'
p423
I8
sS'care'
p424
I130
sS'dammit'
p425
I4
sS'river'
p426
I30
sS'plearn'
p427
I107
sS'her'
p428
I6
sS'sugar'
p429
I5
sS'renaissance'
p430
I31
sS'could'
p431
I270
sS'inexpensive'
p432
I64
sS'put'
p433
I4
sS'days'
p434
I6
sS'british'
p435
I15
sS'keep'
p436
I4
sS'takeout'
p437
I14
sS'thing'
p438
I12
sS'american'
p439
I305
sS'place'
p440
I393
sS'mornings'
p441
I9
sS'californian'
p442
I40
sS'enoteca'
p443
I6
sS'think'
p444
I114
sS'south'
p445
I69
sS'p__m'
p446
I30
sS'chopped'
p447
I6
sS'informations'
p448
I6
sS'already'
p449
I32
sS'mid-priced'
p450
I4
sS'student'
p451
I16
sS'evans'
p452
I3
sS'martin'
p453
I41
sS'question'
p454
I7
sS'coming'
p455
I37
sS'confuse'
p456
I8
sS'number'
p457
I6
sS'fancy'
p458
I9
sS'one'
p459
I291
sS'feet'
p460
I6
sS'ranges'
p461
I6
sS'long'
p462
I96
sS'another'
p463
I11
sS'spanish'
p464
I56
sS'bicycle'
p465
I24
sS'sounds'
p466
I4
sS'quality'
p467
I6
sS'tomorrow'
p468
I136
sS'farthest'
p469
I5
sS'idea'
p470
I7
sS'continental'
p471
I33
sS'guess'
p472
I54
sS'mediterraneum'
p473
I8
sS'schnitzel'
p474
I3
sS'twenty'
p475
I536
sS'top'
p476
I12
sS'moderately'
p477
I11
sS'system'
p478
I3
sS'least'
p479
I3
sS'name'
p480
I39
sS'their'
p481
I10
sS'station'
p482
I17
sS'too'
p483
I179
sS'stuffed'
p484
I25
sS'siam'
p485
I24
sS'hundred'
p486
I139
sS'approximately'
p487
I3
sS'national'
p488
I4
sS'friend'
p489
I9
sS'listen'
p490
I3
sS'shell'
p491
I8
sS'lot'
p492
I66
sS'that'
p493
I734
sS'mediterranean'
p494
I44
sS'helpful'
p495
I3
sS'serve'
p496
I103
sS'hut'
p497
I29
sS'blondie'
p498
I56
sS'noodle'
p499
I7
sS'because'
p500
I21
sS'mermaid'
p501
I10
sS'off'
p502
I18
sS'thai'
p503
I692
sS'believe'
p504
I7
sS'than'
p505
I1107
sS'center'
p506
I21
sS'distance'
p507
I529
sS'kind'
p508
I178
sS'require'
p509
I4
sS'zachary'
p510
I38
sS'beg'
p511
I5
sS'pronounce'
p512
I6
sS'recording'
p513
I19
sS'matter'
p514
I255
sS'express'
p515
I8
sS'street'
p516
I79
sS'speaking'
p517
I20
sS'light'
p518
I6
sS'college'
p519
I5
sS'cambodiana'
p520
I28
sS'anyways'
p521
I17
sS'and'
p522
I1286
sS"ann's"
p523
I7
sS'shilpa'
p524
I35
sS'correction'
p525
I7
sS'mind'
p526
I49
sS'few'
p527
I13
sS'maharani'
p528
I23
sS'tonight'
p529
I151
sS'juice'
p530
I11
sS'say'
p531
I171
sS'spicy'
p532
I40
sS'kirala'
p533
I27
sS'violeta'
p534
I26
sS'have'
p535
I1491
sS'need'
p536
I84
sS'breakfast'
p537
I281
sS'any'
p538
I804
sS'complete'
p539
I5
sS'sell'
p540
I7
sS'nights'
p541
I3
sS'form'
p542
I4
sS'dishes'
p543
I14
sS'person'
p544
I57
sS'spaghetti'
p545
I19
sS'-'
p546
I793
sS'burmese'
p547
I8
sS'bagel'
p548
I7
sS'also'
p549
I78
sS'jefferson'
p550
I6
sS'take'
p551
I77
sS'which'
p552
I203
sS'finding'
p553
I6
sS'so'
p554
I417
sS'korean'
p555
I14
sS'fattening'
p556
I3
sS'closer'
p557
I16
sS'exactly'
p558
I5
sS'normal'
p559
I13
sS'huh'
p560
I9
sS'price'
p561
I143
sS'african'
p562
I76
sS'buffet'
p563
I15
sS'crash'
p564
I12
sS'most'
p565
I131
sS'eight'
p566
I133
sS'eaten'
p567
I3
sS'july'
p568
I12
sS'services'
p569
I7
sS'egyptian'
p570
I5
sS'marie'
p571
I27
sS'tibetan'
p572
I4
sS'why'
p573
I23
sS'sauerkraut'
p574
I23
sS'cuban'
p575
I36
sS'africa'
p576
I4
sS'give'
p577
I319
sS'lococo'
p578
I35
sS'clear'
p579
I20
sS'berkel'
p580
I8
sS'milano'
p581
I26
sS'drive'
p582
I84
sS"val's"
p583
I3
sS'musical'
p584
I10
sS'definitely'
p585
I4
sS'bordeaux'
p586
I7
sS'typical'
p587
I9
sS'fact'
p588
I5
sS'science'
p589
I7
sS'walking'
p590
I263
sS'cinnamon'
p591
I7
sS'particularly'
p592
I4
sS'show'
p593
I414
sS'german'
p594
I152
sS'fond'
p595
I15
sS'cheap'
p596
I261
sS'fifty'
p597
I145
sS'carne'
p598
I3
sS'bring'
p599
I11
sS'coffeehouse'
p600
I4
sS'cambodian'
p601
I37
sS'chicken'
p602
I16
sS'longer'
p603
I5
sS'fine'
p604
I72
sS'find'
p605
I168
sS"guerrero's"
p606
I14
sS'fanny'
p607
I42
sS'durant'
p608
I43
sS'slow'
p609
I4
sS'pastoral'
p610
I43
sS'rasa'
p611
I21
sS"joshu-ya's"
p612
I3
sS'menu'
p613
I108
sS'weekends'
p614
I27
sS'yen'
p615
I9
sS'cheeseburger'
p616
I6
sS'should'
p617
I534
sS'being'
p618
I10
sS'only'
p619
I95
sS'going'
p620
I44
sS'rick'
p621
I7
sS'pretty'
p622
I23
sS'hall'
p623
I3
sS'meant'
p624
I18
sS'do'
p625
I1117
sS'exports'
p626
I4
sS'cappuccino'
p627
I9
sS'rose'
p628
I3
sS'hungarian'
p629
I9
sS'get'
p630
I250
sS'mainly'
p631
I9
sS'de'
p632
I18
sS'icksee'
p633
I387
sS'milkshakes'
p634
I3
sS'cheaper'
p635
I44
sS'joint'
p636
I5
sS'unimportant'
p637
I6
sS'ones'
p638
I27
sS'christopher'
p639
I39
sS'listed'
p640
I5
sS'international'
p641
I45
sS'during'
p642
I42
sS'brit'
p643
I30
sS'chips'
p644
I31
sS'japan'
p645
I5
sS'allston'
p646
I3
sS'bar'
p647
I57
sS"norteno's"
p648
I6
sS"augusta's"
p649
I28
sS'a__m'
p650
I11
sS'ever'
p651
I4
sS'malaysian'
p652
I29
sS'remove'
p653
I4
sS'bay'
p654
I26
sS'bacon'
p655
I6
sS'miles'
p656
I305
sS'she'
p657
I10
sS'deli'
p658
I62
sS'steak'
p659
I17
sS'where'
p660
I443
sS'restaurants'
p661
I1065
sS'searching'
p662
I8
sS'affordable'
p663
I6
sS'bart'
p664
I30
sS'fries'
p665
I3
sS'jade'
p666
I6
sS'bad'
p667
I13
sS'taiwanese'
p668
I8
sS'cajun'
p669
I13
sS'maximum'
p670
I3
sS'see'
p671
I168
sS'yoshi'
p672
I11
sS'radius'
p673
I7
sS'are'
p674
I545
sS'sea'
p675
I17
sS'hell'
p676
I7
sS'khasba'
p677
I12
sS'close'
p678
I199
sS'euclid'
p679
I16
sS"spenger's"
p680
I14
sS'best'
p681
I172
sS'brazil'
p682
I7
sS'mario'
p683
I20
sS'said'
p684
I78
sS'taqueria'
p685
I181
sS'madras'
p686
I47
sS'away'
p687
I218
sS'please'
p688
I649
sS'marmara'
p689
I6
sS'case'
p690
I3
sS'outside'
p691
I6
sS'won'
p692
I26
sS'closed'
p693
I13
sS'between'
p694
I160
sS'yogurt'
p695
I10
sS'jamaican'
p696
I4
sS'screen'
p697
I4
sS'available'
p698
I32
sS'we'
p699
I97
sS'latin'
p700
I6
sS'extend'
p701
I3
sS'opening'
p702
I11
sS'wo'
p703
I10
sS"sizzler's"
p704
I4
sS'sho'
p705
I12
sS'however'
p706
I8
sS'jr'
p707
I7
sS'seafood'
p708
I74
sS'here'
p709
I171
sS'come'
p710
I28
sS'kitchen'
p711
I31
sS'suggested'
p712
I4
sS'hours'
p713
I46
sS'joe'
p714
I5
sS'last'
p715
I27
sS'never'
p716
I3
sS'restaurant'
p717
I1852
sS'many'
p718
I32
sS'taking'
p719
I3
sS'cafes'
p720
I6
sS'quiet'
p721
I15
sS'nile'
p722
I67
sS'called'
p723
I18
sS'kosher'
p724
I44
sS'prefer'
p725
I59
sS'tour'
p726
I98
sS'saday'
p727
I15
sS'mykonos'
p728
I7
sS'china'
p729
I30
sS'swallow'
p730
I10
sS'expense'
p731
I9
sS'whole'
p732
I10
sS'nearby'
p733
I36
sS'suggest'
p734
I4
sS'afterwards'
p735
I6
sS'wall'
p736
I6
sS'ochame'
p737
I4
sS'tuesday'
p738
I159
sS'kilometers'
p739
I20
sS'whatever'
p740
I3
sS'walk'
p741
I216
sS'inexpensively'
p742
I3
sS'likes'
p743
I5
sS'village'
p744
I31
sS'oakland'
p745
I13
sS'expensive'
p746
I274
sS'speak'
p747
I3
sS'turkey'
p748
I13
sS'late'
p749
I73
sS'cycling'
p750
I5
sS'mara'
p751
I41
sS'beef'
p752
I32
sS'addition'
p753
I10
sS'buffets'
p754
I4
sS'three'
p755
I85
sS'been'
p756
I3
sS'caramba'
p757
I100
sS'beer'
p758
I7
sS'much'
p759
I222
sS'basil'
p760
I10
sS'brick'
p761
I29
sS'mary'
p762
I6
sS'threw'
p763
I12
sS'wants'
p764
I4
sS'addison'
p765
I26
sS'life'
p766
I58
sS'lalime'
p767
I38
sS'eastern'
p768
I31
sS'return'
p769
I7
sS'thousand'
p770
I22
sS'luther'
p771
I41
sS'else'
p772
I29
sS'picante'
p773
I27
sS'understand'
p774
I27
sS'liver'
p775
I6
sS'prices'
p776
I4
sS'brunch'
p777
I77
sS'maximally'
p778
I4
sS'those'
p779
I4
sS'paying'
p780
I30
sS'lebanese'
p781
I21
sS'east'
p782
I87
sS'look'
p783
I41
sS'these'
p784
I50
sS'plain'
p785
I17
sS'worried'
p786
I9
sS'inn'
p787
I33
sS'kentucky'
p788
I12
sS'choices'
p789
I3
sS"n't"
p790
I795
sS'near'
p791
I137
sS'daruma'
p792
I20
sS'shall'
p793
I5
sS'fun'
p794
I17
sS'ultra'
p795
I6
sS'seven'
p796
I55
sS'changed'
p797
I5
sS'fourteenth'
p798
I12
sS'cents'
p799
I17
sS'is'
p800
I1291
sS'sushi'
p801
I129
sS'petrouchka'
p802
I31
sS'it'
p803
I979
sS'middle'
p804
I54
sS'awakening'
p805
I4
sS'evening'
p806
I117
sS'upscale'
p807
I10
sS'triple'
p808
I7
sS'in'
p809
I976
sS'bucks'
p810
I107
sS'if'
p811
I141
sS'cuisine'
p812
I273
sS'hong'
p813
I89
sS'juan'
p814
I26
sS'italy'
p815
I5
sS'anymore'
p816
I14
sS'pay'
p817
I103
sS'yuppie'
p818
I10
sS'buddhist'
p819
I7
sS'waitresses'
p820
I4
sS'cross'
p821
I8
sS'same'
p822
I12
sS'trip'
p823
I8
sS'when'
p824
I73
sS'caffe'
p825
I199
sS'belly'
p826
I10
sS'amaru'
p827
I16
sS'plates'
p828
I3
sS'panisse'
p829
I135
sS'cream'
p830
I48
sS'european'
p831
I43
sS'week'
p832
I89
sS'fairly'
p833
I19
sS'closest'
p834
I29
sS'comprehensive'
p835
I4
sS'everett'
p836
I32
sS'drink'
p837
I35
sS'yesterday'
p838
I8
sS'different'
p839
I3
sS'persons'
p840
I3
sS'lobster'
p841
I4
sS'fridays'
p842
I4
sS'purpose'
p843
I12
sS'annex'
p844
I26
sS'croissants'
p845
I4
sS'semolians'
p846
I8
sS'kurdish'
p847
I21
sS"lilly's"
p848
I6
sS'burrito'
p849
I10
sS'picky'
p850
I5
sS'smokey'
p851
I5
sS'database'
p852
I8
sS'i'
p853
I7905
sS'dancing'
p854
I10
sS'well'
p855
I113
sS'anybody'
p856
I4
sS'ocean'
p857
I90
sS'thought'
p858
I8
sS'burgers'
p859
I7
sS'costs'
p860
I60
sS'oops'
p861
I14
sS'casbah'
p862
I20
sS'english'
p863
I22
sS'very'
p864
I213
sS'yangtze'
p865
I30
sS'the'
p866
I2800
sS'spend'
p867
I622
sS'restate'
p868
I4
sS'neighborhood'
p869
I6
sS'stores'
p870
I13
sS'just'
p871
I122
sS'less'
p872
I513
sS'true'
p873
I4
sS'money'
p874
I178
sS'prompt'
p875
I3
sS'not'
p876
I939
sS'distant'
p877
I7
sS'farther'
p878
I16
sS'questions'
p879
I3
sS'seats'
p880
I14
sS'polish'
p881
I27
sS'taiwan'
p882
I29
sS'yet'
p883
I7
sS'previous'
p884
I43
sS'omnivore'
p885
I15
sS'boran'
p886
I3
sS'cup'
p887
I6
sS'mcdonald'
p888
I31
sS'disappointed'
p889
I3
sS'metropole'
p890
I62
sS'except'
p891
I5
sS'casa-de-eva'
p892
I23
sS'pharmacy'
p893
I54
sS'brewed'
p894
I4
sS'simple'
p895
I9
sS'interested'
p896
I120
sS'parents'
p897
I12
sS'sweet'
p898
I12
sS'shin-shin'
p899
I30
sS'mar'
p900
I41
sS'has'
p901
I86
sS'easter'
p902
I3
sS'ca'
p903
I7
sS'smart'
p904
I3
sS'sandwiches'
p905
I49
sS'real'
p906
I33
sS'oliveto'
p907
I23
sS'indonesian'
p908
I38
sS'around'
p909
I213
sS'vin'
p910
I94
sS'couple'
p911
I17
sS'possible'
p912
I37
sS'coupla'
p913
I5
sS'arab'
p914
I3
sS'five'
p915
I676
sS'know'
p916
I566
sS'dish'
p917
I3
sS'desk'
p918
I11
sS'average'
p919
I7
sS'bit'
p920
I20
sS'brennan'
p921
I23
sS'joshu-ya'
p922
I24
sS'buddy'
p923
I4
sS'formal'
p924
I4
sS'stuff'
p925
I6
sS'like'
p926
I3114
sS'precise'
p927
I10
sS'collective'
p928
I11
sS'cheval'
p929
I18
sS'serves'
p930
I42
sS"'ve"
p931
I53
sS'steps'
p932
I8
sS'either'
p933
I42
sS'night'
p934
I289
sS'reasonably'
p935
I25
sS'italian'
p936
I334
sS'twelve'
p937
I51
sS'right'
p938
I75
sS'old'
p939
I22
sS'people'
p940
I12
sS"maxim's"
p941
I4
sS'some'
p942
I685
sS'back'
p943
I82
sS'claremont'
p944
I24
sS'malaysia'
p945
I5
sS'kilometer'
p946
I7
sS'sure'
p947
I5
sS'jupiter'
p948
I29
sS'specified'
p949
I7
sS'kinds'
p950
I9
sS'mother'
p951
I9
sS'gross'
p952
I4
sS'slice'
p953
I25
sS'caribbean'
p954
I30
sS'mood'
p955
I9
sS'for'
p956
I1497
sS'noon'
p957
I13
sS'fondue'
p958
I13
sS"manuel's"
p959
I6
sS'per'
p960
I38
sS'shakes'
p961
I4
sS'everything'
p962
I26
sS'does'
p963
I407
sS'lunchtime'
p964
I7
sS'moderate'
p965
I21
sS'eggs'
p966
I6
sS'carte'
p967
I30
sS't'
p968
I5
sS'be'
p969
I975
sS'object'
p970
I8
sS'eating'
p971
I18
sS'reasonable'
p972
I25
sS'business'
p973
I7
sS'quit'
p974
I10
sS'view'
p975
I95
sS'use'
p976
I12
sS'bavarian'
p977
I3
sS'cedar'
p978
I5
sS'display'
p979
I13
sS'although'
p980
I4
sS'pasta'
p981
I24
sS'prepared'
p982
I6
sS'by'
p983
I47
sS'takes'
p984
I3
sS"jupiter's"
p985
I5
sS'on'
p986
I1557
sS'about'
p987
I2821
sS'hard'
p988
I4
sS'diner'
p989
I70
sS'anything'
p990
I80
sS'oh'
p991
I226
sS'of'
p992
I1127
sS'dollars'
p993
I1552
sS"mcdonald's"
p994
I12
sS'recognized'
p995
I7
sS'side'
p996
I25
sS'dinner'
p997
I910
sS'important'
p998
I38
sS'afternoon'
p999
I21
sS'chow'
p1000
I15
sS'saul'
p1001
I18
sS'lantern'
p1002
I8
sS'or'
p1003
I625
sS'block'
p1004
I4
sS'dara'
p1005
I5
sS'ethnic'
p1006
I3
sS'portuguese'
p1007
I8
sS'previously'
p1008
I3
sS'into'
p1009
I15
sS'within'
p1010
I292
sS'down'
p1011
I4
sS"marie's"
p1012
I3
sS'primarily'
p1013
I12
sS'gary'
p1014
I12
sS"lalime's"
p1015
I3
sS"king's"
p1016
I4
sS'bombay'
p1017
I36
sS'your'
p1018
I83
sS'wan'
p1019
I366
sS'mississippi'
p1020
I11
sS'computer'
p1021
I58
sS'additional'
p1022
I47
sS'val'
p1023
I42
sS'area'
p1024
I39
sS'spending'
p1025
I27
sS'weekend'
p1026
I108
sS'vegetables'
p1027
I10
sS'there'
p1028
I609
sS'mastro'
p1029
I6
sS'fast'
p1030
I26
sS'kidding'
p1031
I8
sS'jewish'
p1032
I4
sS'start'
p1033
I726
sS'mondays'
p1034
I11
sS'low'
p1035
I5
sS'homemade'
p1036
I31
sS'brazilian'
p1037
I26
sS'call'
p1038
I4
sS'lox'
p1039
I4
sS'was'
p1040
I61
sS'happy'
p1041
I3
sS'selection'
p1042
I16
sS'medium'
p1043
I18
sS'north'
p1044
I64
sS'berp'
p1045
I13
sS'offering'
p1046
I10
sS'downstairs'
p1047
I6
sS'bus'
p1048
I12
sS'but'
p1049
I271
sS'maxim'
p1050
I32
sS'eater'
p1051
I19
sS'spam'
p1052
I4
sS'hi'
p1053
I15
sS'hear'
p1054
I20
sS'russian'
p1055
I48
sS'nakapan'
p1056
I43
sS'with'
p1057
I211
sS'eat'
p1058
I1431
sS'he'
p1059
I27
sS'viva'
p1060
I35
sS'pavilion'
p1061
I10
sS'romantic'
p1062
I4
sS'places'
p1063
I96
sS'whether'
p1064
I3
sS'wish'
p1065
I8
sS'peralta'
p1066
I4
sS'up'
p1067
I229
sS'whoa'
p1068
I6
sS'um'
p1069
I538
sS'below'
p1070
I7
sS"'re"
p1071
I41
sS'limit'
p1072
I8
sS'uh'
p1073
I1623
sS'howbout'
p1074
I62
sS'manuel'
p1075
I36
sS'meters'
p1076
I58
sS'fried'
p1077
I12
sS'minutes'
p1078
I844
sS'bateau'
p1079
I75
sS'selects'
p1080
I3
sS'<unk>'
p1081
I241
sS'later'
p1082
I3
sS'located'
p1083
I54
sS'alfredo'
p1084
I3
sS'item'
p1085
I3
sS'peruvian'
p1086
I4
sS'reservations'
p1087
I25
sS'am'
p1088
I134
sS'pie'
p1089
I4
sS'doesn'
p1090
I5
sS'an'
p1091
I311
sS'as'
p1092
I118
sS'tasty'
p1093
I6
sS'at'
p1094
I675
sS'file'
p1095
I6
sS'candle'
p1096
I6
sS'ay'
p1097
I99
sS'cafe'
p1098
I595
sS'syrian'
p1099
I21
sS'campus'
p1100
I61
sS'ivre'
p1101
I75
sS'ice'
p1102
I48
sS'again'
p1103
I269
sS"'ll"
p1104
I92
sS'vasiliki'
p1105
I13
sS'no'
p1106
I548
sS'na'
p1107
I377
sS'thanks'
p1108
I4
sS'green'
p1109
I4
sS'intend'
p1110
I8
sS'thinking'
p1111
I22
sS'parlor'
p1112
I4
sS'other'
p1113
I56
sS'sick'
p1114
I6
sS'you'
p1115
I1279
sS'out'
p1116
I161
sS'roll'
p1117
I7
sS'nice'
p1118
I96
sS'poor'
p1119
I10
sS'requested'
p1120
I3
sS'junk'
p1121
I5
sS'ham'
p1122
I5
sS"'s"
p1123
I1826
sS'monday'
p1124
I172
sS"o'clock"
p1125
I25
sS'eiffel'
p1126
I98
sS'polite'
p1127
I5
sS'stay'
p1128
I4
sS"'d"
p1129
I1262
sS'log'
p1130
I9
sS'reservation'
p1131
I32
sS"'m"
p1132
I733
sS'priced'
p1133
I27
sS'friends'
p1134
I20
sS'meals'
p1135
I8
sS'jones'
p1136
I32
sS'driving'
p1137
I12
sS'potato'
p1138
I3
sS'age'
p1139
I5
sS'dog'
p1140
I12
sS'together'
p1141
I12
sS'hello'
p1142
I39
sS'vietnam'
p1143
I35
sS'time'
p1144
I64
sS"sujatha's"
p1145
I12
sS'original'
p1146
I6
sS'once'
p1147
I11
s.