(dp0
S'PRP$'
p1
(dp2
S'their'
p3
I10
sS'my'
p4
I169
sS'your'
p5
I83
sS'its'
p6
I10
ssS'VBG'
p7
(dp8
S'walking'
p9
I253
sS'serving'
p10
I39
sS'being'
p11
I10
sS'searching'
p12
I8
sS'kong'
p13
I69
sS'traveling'
p14
I6
sS'venezia'
p15
I3
sS'icsi'
p16
I38
sS'matching'
p17
I4
sS'costing'
p18
I8
sS'gon'
p19
I11
sS'driving'
p20
I12
sS'depending'
p21
I7
sS'thinking'
p22
I22
sS'kidding'
p23
I8
sS'looking'
p24
I239
sS'going'
p25
I44
sS'wondering'
p26
I4
sS'finding'
p27
I6
sS'sun-hong-kong'
p28
I8
sS'speaking'
p29
I20
sS'eating'
p30
I18
sS'california'
p31
I1
sS'coming'
p32
I37
sS'screaming'
p33
I8
sS'paying'
p34
I30
sS'tsing'
p35
I10
sS'getting'
p36
I12
sS'taking'
p37
I3
sS'recording'
p38
I6
sS'spending'
p39
I27
sS'vegi'
p40
I1
sS'having'
p41
I30
sS'<unk>'
p42
I9
ssS'VBD'
p43
(dp44
S'cost'
p45
I45
sS'forgot'
p46
I27
sS'elmwood'
p47
I8
sS'quit'
p48
I1
sS'said'
p49
I78
sS'rose'
p50
I3
sS'had'
p51
I16
sS'won'
p52
I20
sS'stuffed'
p53
I8
sS'got'
p54
I23
sS'was'
p55
I61
sS'gave'
p56
I18
sS'meant'
p57
I18
sS'requested'
p58
I3
sS'wan'
p59
I5
sS'wanted'
p60
I65
sS'suggested'
p61
I4
sS'did'
p62
I79
sS'changed'
p63
I5
sS'thought'
p64
I6
sS'went'
p65
I49
sS'threw'
p66
I12
sS'called'
p67
I5
sg42
I10
ssS'VBN'
p68
(dp69
S'chopped'
p70
I6
sS'named'
p71
I10
sS'mexican'
p72
I1
sS'delicatessen'
p73
I4
sS'sushi'
p74
I20
sS'mediterranean'
p75
I1
sS'brit'
p76
I4
sS'heard'
p77
I4
sS'kirala'
p78
I2
sS'cambodian'
p79
I2
sS'specified'
p80
I7
sS'managed'
p81
I19
sS'elmwood'
p82
I8
sS'sauerkraut'
p83
I23
sS'la'
p84
I4
sS'been'
p85
I3
sS'located'
p86
I54
sS'won'
p87
I6
sS'listed'
p88
I5
sS'stuffed'
p89
I17
sS'got'
p90
I39
sS'cajun'
p91
I5
sS'closed'
p92
I13
sS'cancun'
p93
I13
sS'priced'
p94
I27
sS'california'
p95
I42
sS'eaten'
p96
I3
sS'fried'
p97
I12
sS'brewed'
p98
I4
sS'recognized'
p99
I7
sS'takeout'
p100
I14
sS'margaritas'
p101
I2
sS'called'
p102
I13
sg42
I5
ssS'VBP'
p103
(dp104
S'zachary'
p105
I11
sS'want'
p106
I1797
sS'chinese'
p107
I13
sS'show'
p108
I14
sS'am'
p109
I82
sS'walk'
p110
I14
sS'go'
p111
I24
sS'say'
p112
I52
sS'cost'
p113
I13
sS'are'
p114
I545
sS'have'
p115
I267
sS'need'
p116
I55
sS'cuisine'
p117
I12
sS'wan'
p118
I272
sS'guess'
p119
I54
sS'believe'
p120
I7
sS'thank'
p121
I53
sS'display'
p122
I3
sS'pay'
p123
I4
sS'make'
p124
I4
sS'give'
p125
I2
sS'please'
p126
I7
sS'increase'
p127
I7
sS'caffe'
p128
I15
sS'take'
p129
I9
sS'do'
p130
I1109
sS'intend'
p131
I8
sS'form'
p132
I4
sS'get'
p133
I11
sS'prefer'
p134
I41
sS'cancun'
p135
I24
sS'serve'
p136
I36
sS'ristorante'
p137
I21
sS'hear'
p138
I11
sS'know'
p139
I35
sS'ask'
p140
I14
sS"'m"
p141
I733
sS'spend'
p142
I3
sS'come'
p143
I10
sS'eat'
p144
I10
sS'pasand'
p145
I12
sS'pronounce'
p146
I6
sS'plearn'
p147
I26
sS'like'
p148
I201
sS'wish'
p149
I8
sS'vietnamese'
p150
I4
sS'list'
p151
I2
sS'see'
p152
I3
sS"'ve"
p153
I53
sS'try'
p154
I11
sS'beg'
p155
I5
sS"'re"
p156
I41
sS'understand'
p157
I4
sg42
I7
sS'think'
p158
I96
sS'mean'
p159
I4
ssS'WDT'
p160
(dp161
S'what'
p162
I51
sS'that'
p163
I324
sS'whatever'
p164
I3
sS'kosher'
p165
I4
sS'which'
p166
I203
sS'thai'
p167
I9
ssS'JJ'
p168
(dp169
S'precise'
p170
I10
sS'mexican'
p171
I223
sS'chinese'
p172
I300
sS'german'
p173
I78
sS'fond'
p174
I15
sS'cheap'
p175
I257
sS'distant'
p176
I7
sS'cambodian'
p177
I28
sS'austrian'
p178
I12
sS'taiwan'
p179
I20
sS'fine'
p180
I72
sS'previous'
p181
I43
sS'durant'
p182
I3
sS'slow'
p183
I4
sS'la'
p184
I46
sS'disappointed'
p185
I3
sS'concerned'
p186
I14
sS'yorkshire'
p187
I13
sS'late'
p188
I47
sS'iraqi'
p189
I21
sS'interested'
p190
I120
sS'rich'
p191
I18
sS'shin-shin'
p192
I28
sS'lilly'
p193
I23
sS'easter'
p194
I3
sS'smart'
p195
I3
sS'real'
p196
I31
sS'indonesian'
p197
I38
sS'good'
p198
I318
sS'sick'
p199
I6
sS'hungarian'
p200
I6
sS'egyptian'
p201
I5
sS'far'
p202
I3
sS'dessert'
p203
I3
sS'possible'
p204
I37
sS'fat'
p205
I59
sS'arab'
p206
I3
sS'joint'
p207
I2
sS'unimportant'
p208
I6
sS'vietnamese'
p209
I23
sS'international'
p210
I45
sS'bastille'
p211
I12
sS'formal'
p212
I4
sS'allston'
p213
I3
sS'dim'
p214
I12
sS'armenian'
p215
I21
sS'helpful'
p216
I3
sS'collective'
p217
I11
sS'malaysian'
p218
I27
sS'bavarian'
p219
I3
sS'worried'
p220
I9
sS'affordable'
p221
I6
sS'bad'
p222
I13
sS'stupid'
p223
I5
sS'flashy'
p224
I9
sS'reasonable'
p225
I25
sS'quick'
p226
I15
sS'european'
p227
I43
sS'asian'
p228
I109
sS'californian'
p229
I40
sS'portuguese'
p230
I4
sS'right'
p231
I10
sS'old'
p232
I22
sS'bart'
p233
I14
sS'latin'
p234
I6
sS'jade'
p235
I2
sS'hard'
p236
I4
sS'okay'
p237
I59
sS'japanese'
p238
I135
sS'triple'
p239
I7
sS'second'
p240
I6
sS'persian'
p241
I45
sS'polish'
p242
I3
sS'close'
p243
I163
sS'blue'
p244
I67
sS'gross'
p245
I4
sS'caribbean'
p246
I29
sS'bombay'
p247
I17
sS'fondue'
p248
I13
sS'indian'
p249
I309
sS'oriental'
p250
I54
sS'new'
p251
I6
sS'moderate'
p252
I21
sS'sun-hong-kong'
p253
I18
sS'red'
p254
I7
sS'available'
p255
I32
sS'med'
p256
I5
sS'cajun'
p257
I2
sS'full'
p258
I7
sS'cantonese'
p259
I2
sS'friday'
p260
I31
sS'gilman'
p261
I10
sS'french'
p262
I184
sS'willing'
p263
I253
sS'california'
p264
I37
sS'free'
p265
I5
sS'berkeley'
p266
I28
sS'westside'
p267
I15
sS'half'
p268
I8
sS'additional'
p269
I47
sS'great'
p270
I36
sS'last'
p271
I27
sS'english'
p272
I2
sS'many'
p273
I32
sS'vegetarian'
p274
I209
sS'inexpensive'
p275
I64
sS'favorite'
p276
I32
sS'quiet'
p277
I15
sS'british'
p278
I15
sS'kosher'
p279
I2
sS'american'
p280
I265
sS'saday'
p281
I15
sS'swallow'
p282
I10
sS'italian'
p283
I313
sS'whole'
p284
I10
sS'south'
p285
I17
sS'first'
p286
I17
sS'mid-priced'
p287
I4
sS'simple'
p288
I9
sS'sweet'
p289
I12
sS'ethiopian'
p290
I50
sS'fancy'
p291
I9
sS'long'
p292
I81
sS'spanish'
p293
I30
sS'total'
p294
I13
sS'open'
p295
I279
sS'turkish'
p296
I23
sS'expensive'
p297
I274
sS'wan'
p298
I16
sS'little'
p299
I50
sS'russell'
p300
I7
sS'tibetan'
p301
I4
sS'top'
p302
I12
sS'fast'
p303
I22
sS'next'
p304
I99
sS'continental'
p305
I33
sS'few'
p306
I13
sS'much'
p307
I191
sS'low'
p308
I5
sS'homemade'
p309
I31
sS'brazilian'
p310
I24
sS'siam'
p311
I7
sS'greasy'
p312
I11
sS'national'
p313
I4
sS'mermaid'
p314
I10
sS'happy'
p315
I3
sS'israel'
p316
I4
sS'medium'
p317
I18
sS'complete'
p318
I5
sS'eastern'
p319
I31
sS'jewish'
p320
I4
sS'mediterranean'
p321
I43
sS'taiwanese'
p322
I8
sS'excellent'
p323
I3
sS'russian'
p324
I45
sS'plearn'
p325
I35
sS'thai'
p326
I247
sS'nakapan'
p327
I6
sS'true'
p328
I4
sS'australian'
p329
I35
sS'lebanese'
p330
I21
sS'romantic'
p331
I4
sS'frozen'
p332
I4
sS'plain'
p333
I17
sS'kentucky'
p334
I9
sS'jamaican'
p335
I4
sS'upscale'
p336
I10
sS'vegi'
p337
I11
sS'average'
p338
I7
sg42
I33
sS'joshu-ya'
p339
I1
sS'hunan'
p340
I3
sS'peruvian'
p341
I4
sS'delicatessen'
p342
I4
sS'sushi'
p343
I84
sS'terrible'
p344
I4
sS'high'
p345
I6
sS'middle'
p346
I47
sS'spicy'
p347
I28
sS'tasty'
p348
I6
sS'arabian'
p349
I4
sS'fourteenth'
p350
I12
sS'further'
p351
I7
sS'syrian'
p352
I21
sS'different'
p353
I3
sS'italy'
p354
I2
sS'mid-price'
p355
I9
sS'able'
p356
I3
sS'same'
p357
I12
sS'other'
p358
I56
sS'caffe'
p359
I26
sS'fourth'
p360
I25
sS'green'
p361
I4
sS'korean'
p362
I14
sS'nice'
p363
I96
sS'poor'
p364
I10
sS'sure'
p365
I5
sS'solano'
p366
I7
sS'monday'
p367
I12
sS'normal'
p368
I13
sS'comprehensive'
p369
I4
sS'claremont'
p370
I5
sS'eiffel'
p371
I2
sS'southern'
p372
I9
sS'polite'
p373
I5
sS'prepared'
p374
I6
sS'wrong'
p375
I18
sS'important'
p376
I38
sS'ethnic'
p377
I3
sS'such'
p378
I10
sS'authentic'
p379
I14
sS'shattuck'
p380
I13
sS'kurdish'
p381
I21
sS'cuban'
p382
I26
sS'short'
p383
I26
sS'picky'
p384
I5
sS'clear'
p385
I20
sS'hungry'
p386
I22
sS'musical'
p387
I10
sS'chief'
p388
I4
sS'au-coquelet'
p389
I6
sS'african'
p390
I53
sS'original'
p391
I6
sS'typical'
p392
I9
ssS'WP'
p393
(dp394
S'what'
p395
I752
sg42
I2
ssS'VBZ'
p396
(dp397
S'wants'
p398
I4
sS'shakes'
p399
I4
sS"'s"
p400
I478
sS'takes'
p401
I3
sS'places'
p402
I6
sS'icsi'
p403
I16
sS'is'
p404
I1291
sS'drinks'
p405
I6
sS'serves'
p406
I42
sS'costs'
p407
I26
sS'ranges'
p408
I6
sS'does'
p409
I407
sS'likes'
p410
I5
sS'skates'
p411
I10
sS'says'
p412
I6
sS'sounds'
p413
I4
sS'has'
p414
I86
sS'selects'
p415
I3
sS'sandwiches'
p416
I15
sg42
I8
ssS'DT'
p417
(dp418
S'portuguese'
p419
I4
sS'all'
p420
I47
sS'chinese'
p421
I20
sS'tuesday'
p422
I4
sS'some'
p423
I685
sS'japanese'
p424
I6
sS'an'
p425
I311
sS'another'
p426
I11
sS'cantonese'
p427
I1
sS'any'
p428
I804
sS'la'
p429
I14
sS'jefferson'
p430
I6
sS'lalime'
p431
I4
sS'that'
p432
I315
sS'every'
p433
I11
sS'vietnamese'
p434
I1
sS'thai'
p435
I287
sS'those'
p436
I4
sS'a'
p437
I2566
sS'both'
p438
I19
sS'this'
p439
I227
sS'no'
p440
I301
sS'kosher'
p441
I22
sS'these'
p442
I50
sS'burmese'
p443
I8
sS'each'
p444
I6
sS'the'
p445
I2800
sS'nino'
p446
I5
ssS'RP'
p447
(dp448
S'on'
p449
I3
sS'off'
p450
I9
sS'vegetarian'
p451
I3
sS'up'
p452
I122
sS'kong'
p453
I9
sS'down'
p454
I4
sS'american'
p455
I2
sS'in'
p456
I12
sS'icsi'
p457
I10
sS'over'
p458
I651
sS'out'
p459
I157
ssS'NN'
p460
(dp461
S'northside'
p462
I4
sS'chinese'
p463
I28
sS'potsticker'
p464
I18
sS'dollar'
p465
I128
sS'mile'
p466
I128
sS'asian'
p467
I38
sS'go'
p468
I56
sS'barbecue'
p469
I139
sS'edy'
p470
I13
sS'asada'
p471
I3
sS'guerrero'
p472
I22
sS'pasand'
p473
I43
sS'vietnamese'
p474
I13
sS'father'
p475
I27
sS'thursday'
p476
I89
sS'ta'
p477
I8
sS'lococo'
p478
I16
sS'arinell'
p479
I19
sS'confirmation'
p480
I6
sS'garden'
p481
I32
sS'deli'
p482
I62
sS'dessert'
p483
I35
sS'account'
p484
I9
sS'fat'
p485
I15
sS'choice'
p486
I3
sS'spoon'
p487
I8
sS'm__s__g'
p488
I5
sS'ticket'
p489
I24
sS'minute'
p490
I36
sS'hour'
p491
I142
sS'bucci'
p492
I2
sS'list'
p493
I399
sS'wednesday'
p494
I36
sS'strada'
p495
I3
sS'item'
p496
I3
sS'subway'
p497
I5
sS'norteno'
p498
I4
sS'science'
p499
I7
sS'round'
p500
I20
sS'pork'
p501
I3
sS'bicycle'
p502
I24
sS'villa'
p503
I52
sS'bacon'
p504
I6
sS'japanese'
p505
I8
sS'burger'
p506
I34
sS'cost'
p507
I205
sS'query'
p508
I9
sS'further'
p509
I5
sS'cactus'
p510
I33
sS'icsi'
p511
I381
sS'fattening'
p512
I3
sS'bakeshop'
p513
I4
sS'chicago'
p514
I11
sS'sum'
p515
I12
sS'cooking'
p516
I5
sS'asia'
p517
I4
sS'indian'
p518
I29
sS"c'mon"
p519
I3
sS'mel'
p520
I13
sS'overstatement'
p521
I7
sS'gilman'
p522
I4
sS'water'
p523
I41
sS'ching'
p524
I9
sS'china'
p525
I30
sS'berkeley'
p526
I383
sS'wait'
p527
I8
sS'luther'
p528
I41
sS'institute'
p529
I7
sS'vegetarian'
p530
I44
sS'tambo'
p531
I23
sS'amount'
p532
I14
sS'lasagna'
p533
I5
sS'weekday'
p534
I13
sS'volga'
p535
I15
sS'apple'
p536
I41
sS'vin'
p537
I94
sS'duck'
p538
I5
sS'hamburger'
p539
I38
sS'cha'
p540
I52
sS'use'
p541
I5
sS'cannibal'
p542
I7
sS'music'
p543
I4
sS'telegraph'
p544
I21
sS'type'
p545
I138
sS'today'
p546
I199
sS'sort'
p547
I4
sS'sujatha'
p548
I13
sS'giovanni'
p549
I98
sS'ristorante'
p550
I13
sS'downtown'
p551
I21
sS'glass'
p552
I9
sS'hurry'
p553
I9
sS'town'
p554
I17
sS'grill'
p555
I39
sS'none'
p556
I9
sS'salad'
p557
I41
sS'car'
p558
I101
sS'work'
p559
I17
sS'soul'
p560
I9
sS'soup'
p561
I50
sS'mall'
p562
I4
sS'sizzler'
p563
I10
sS'vegi'
p564
I33
sS'nino'
p565
I3
sS'barclay'
p566
I4
sS'prompt'
p567
I3
sS'favorite'
p568
I1
sS'sense'
p569
I7
sS'something'
p570
I309
sS'cantonese'
p571
I6
sS'information'
p572
I571
sS'end'
p573
I4
sS'dinner'
p574
I910
sS'sunday'
p575
I209
sS'pizza'
p576
I240
sS'product'
p577
I4
sS'mar'
p578
I41
sS'petrouchka'
p579
I31
sS'fu'
p580
I10
sS'albany'
p581
I4
sS'cancun'
p582
I16
sS'ochame'
p583
I4
sS'lab'
p584
I4
sS'taco'
p585
I3
sS'date'
p586
I20
sS'shattuck'
p587
I41
sS'light'
p588
I6
sS'mediterranee'
p589
I26
sS'nefeli'
p590
I8
sS'greek'
p591
I117
sS'bakery'
p592
I15
sS'au-coquelet'
p593
I38
sS'goodbye'
p594
I4
sS'african'
p595
I23
sS'dream'
p596
I3
sS'juan'
p597
I14
sS'wine'
p598
I26
sS'no.'
p599
I14
sS'midnight'
p600
I26
sS'teashop'
p601
I20
sS'brit'
p602
I26
sS'wiener'
p603
I3
sS'japan'
p604
I5
sS'avenue'
p605
I65
sS'style'
p606
I15
sS'la'
p607
I81
sS'yorkshire'
p608
I11
sS'late'
p609
I4
sS'listing'
p610
I7
sS'pad'
p611
I7
sS'coffee'
p612
I61
sS'good'
p613
I4
sS'somebody'
p614
I14
sS'food'
p615
I2427
sS'lunch'
p616
I768
sS'heike'
p617
I22
sS'flint'
p618
I27
sS'half'
p619
I29
sS'foot'
p620
I20
sS'hall'
p621
I3
sS'meat'
p622
I45
sS'bette'
p623
I46
sS'university'
p624
I36
sS'drop'
p625
I16
sS'chuck'
p626
I12
sS'panini'
p627
I4
sS'cerrito'
p628
I4
sS'roast'
p629
I11
sS'rock'
p630
I7
sS'quarter'
p631
I9
sS'side'
p632
I25
sS'lantern'
p633
I8
sS'el'
p634
I4
sS'house'
p635
I199
sS'fish'
p636
I57
sS'spanish'
p637
I26
sS'idea'
p638
I7
sS'brother'
p639
I9
sS'entree'
p640
I3
sS'morning'
p641
I31
sS'elmwood'
p642
I39
sS'saturday'
p643
I316
sS'pepito'
p644
I15
sS'alcohol'
p645
I6
sS'entertainment'
p646
I10
sS'kensington'
p647
I3
sS'mediterraneum'
p648
I8
sS'brewery'
p649
I7
sS'bistro'
p650
I6
sS'kip'
p651
I4
sS'shit'
p652
I7
sS'friday'
p653
I151
sS'fred'
p654
I3
sS'california'
p655
I87
sS'carl'
p656
I21
sS'marina'
p657
I20
sS'dammit'
p658
I4
sS'river'
p659
I30
sS'plearn'
p660
I29
sS'area'
p661
I39
sS'thing'
p662
I12
sS'american'
p663
I33
sS'place'
p664
I393
sS'sho'
p665
I12
sS'south'
p666
I46
sS'p__m'
p667
I30
sS'question'
p668
I7
sS'number'
p669
I6
sS'one'
p670
I48
sS'venezia'
p671
I94
sS'neighborhood'
p672
I6
sS'quality'
p673
I6
sS'tomorrow'
p674
I136
sS'system'
p675
I3
sS'schnitzel'
p676
I3
sS'station'
p677
I17
sS'stock'
p678
I4
sS'siam'
p679
I17
sS'friend'
p680
I9
sS'cambodiana'
p681
I24
sS'way'
p682
I38
sS'chez'
p683
I133
sS'hut'
p684
I29
sS'enoteca'
p685
I6
sS'thai'
p686
I63
sS'distance'
p687
I529
sS'icksee'
p688
I354
sS'recording'
p689
I13
sS'matter'
p690
I5
sS'street'
p691
I79
sS'college'
p692
I5
sS'shilpa'
p693
I34
sS'correction'
p694
I7
sS'mind'
p695
I5
sS'maharani'
p696
I3
sS'tonight'
p697
I151
sS'juice'
p698
I11
sS'kirala'
p699
I9
sS'violeta'
p700
I26
sS'lunchtime'
p701
I7
sS'breakfast'
p702
I271
sS'dancing'
p703
I10
sS'switch'
p704
I2
sS'bagel'
p705
I7
sS'price'
p706
I143
sS'object'
p707
I8
sS'buffet'
p708
I15
sS'nadine'
p709
I14
sS'marie'
p710
I27
sS'cuban'
p711
I5
sS'bateau'
p712
I18
sS'berkel'
p713
I8
sS'ko'
p714
I23
sS'drive'
p715
I13
sS'bordeaux'
p716
I7
sS'fact'
p717
I5
sS'walking'
p718
I10
sS'selection'
p719
I16
sS'german'
p720
I67
sS'cheap'
p721
I4
sS'carne'
p722
I3
sS'coffeehouse'
p723
I4
sS'cambodian'
p724
I7
sS'chicken'
p725
I16
sS'durant'
p726
I40
sS'pastoral'
p727
I43
sS'rasa'
p728
I21
sS'menu'
p729
I108
sS'cheeseburger'
p730
I6
sS'sugar'
p731
I5
sS'rick'
p732
I7
sS'plate'
p733
I35
sS'cappuccino'
p734
I9
sS'hungarian'
p735
I3
sS'king'
p736
I57
sS'express'
p737
I8
sS'kind'
p738
I163
sS'joint'
p739
I3
sS'christopher'
p740
I39
sS'kong'
p741
I1
sS'bar'
p742
I57
sS'a__m'
p743
I11
sS'malaysian'
p744
I2
sS'sandwich'
p745
I60
sS'bay'
p746
I26
sS'stuff'
p747
I6
sS'steak'
p748
I17
sS'view'
p749
I95
sS'bart'
p750
I16
sS'jade'
p751
I4
sS'yoshi'
p752
I7
sS'radius'
p753
I7
sS'sea'
p754
I17
sS'khasba'
p755
I12
sS'euclid'
p756
I16
sS'brazil'
p757
I7
sS'taqueria'
p758
I43
sS'marmara'
p759
I6
sS'kilometer'
p760
I7
sS'yogurt'
p761
I10
sS"sizzler's"
p762
I4
sS'cajun'
p763
I6
sS'opening'
p764
I11
sS'screen'
p765
I4
sS'jr'
p766
I7
sS'manuel'
p767
I3
sS'kitchen'
p768
I31
sS'restaurant'
p769
I1849
sS'nile'
p770
I67
sS'kosher'
p771
I7
sS'tour'
p772
I98
sS'expense'
p773
I9
sS'wall'
p774
I6
sS'tuesday'
p775
I87
sS'address'
p776
I5
sS'walk'
p777
I103
sS'village'
p778
I31
sS'oakland'
p779
I13
sS'turkey'
p780
I13
sS'quit'
p781
I9
sS'cycling'
p782
I5
sS'mara'
p783
I41
sS'beef'
p784
I32
sS'addition'
p785
I10
sS'caramba'
p786
I44
sS'beer'
p787
I7
sS'basil'
p788
I10
sS'brick'
p789
I29
sS'addison'
p790
I26
sS'life'
p791
I58
sS'lalime'
p792
I32
sS'picante'
p793
I27
sS'liver'
p794
I6
sS'brunch'
p795
I77
sS'case'
p796
I3
sS'sayang'
p797
I21
sS'bill'
p798
I3
sS'fun'
p799
I17
sS'delicatessen'
p800
I1
sS'sushi'
p801
I16
sS'telephone'
p802
I6
sS'middle'
p803
I7
sS'awakening'
p804
I4
sS'evening'
p805
I117
sS'cuisine'
p806
I261
sS'hong'
p807
I75
sS'pay'
p808
I2
sS'yuppie'
p809
I10
sS'buddhist'
p810
I7
sS'cross'
p811
I8
sS'trip'
p812
I8
sS'caffe'
p813
I152
sS'belly'
p814
I10
sS'amaru'
p815
I16
sS'party'
p816
I10
sS'panisse'
p817
I133
sS'day'
p818
I183
sS'cinnamon'
p819
I7
sS'week'
p820
I89
sS'everett'
p821
I32
sS'drink'
p822
I2
sS'yesterday'
p823
I8
sS'renaissance'
p824
I31
sS'purpose'
p825
I12
sS'student'
p826
I16
sS'noodle'
p827
I7
sS'burrito'
p828
I8
sS'center'
p829
I21
sS'database'
p830
I8
sS'anybody'
p831
I4
sS'ocean'
p832
I90
sS'thought'
p833
I2
sS'person'
p834
I57
sS'casbah'
p835
I20
sS'mother'
p836
I9
sS'landmark'
p837
I5
sS'yangtze'
p838
I30
sS'yen'
p839
I9
sS'money'
p840
I178
sS'polish'
p841
I24
sS'taiwan'
p842
I8
sS'dara'
p843
I5
sS'omnivore'
p844
I15
sS'boran'
p845
I3
sS'cup'
p846
I6
sS'mcdonald'
p847
I31
sS'metropole'
p848
I62
sS'casa-de-eva'
p849
I21
sS'pharmacy'
p850
I51
sS'shin-shin'
p851
I2
sS'east'
p852
I87
sS'daruma'
p853
I20
sS'oliveto'
p854
I17
sS'africa'
p855
I4
sS'couple'
p856
I17
sS'coupla'
p857
I5
sS'cedar'
p858
I5
sS'dish'
p859
I3
sS'desk'
p860
I11
sS'bit'
p861
I20
sS'brennan'
p862
I23
sS'buddy'
p863
I4
sS'name'
p864
I39
sS't'
p865
I5
sS'night'
p866
I289
sS'italian'
p867
I17
sS'right'
p868
I2
sS'maxim'
p869
I32
sS'claremont'
p870
I19
sS'malaysia'
p871
I5
sS'jupiter'
p872
I23
sS'candle'
p873
I6
sS'slice'
p874
I25
sS'caribbean'
p875
I1
sS'mood'
p876
I9
sS'noon'
p877
I13
sS'annex'
p878
I26
sS'ice'
p879
I48
sS'everything'
p880
I26
sS'ethiopian'
p881
I2
sS'fanny'
p882
I42
sS'carte'
p883
I20
sS'business'
p884
I7
sS'martin'
p885
I41
sS'santa'
p886
I5
sS'pasta'
p887
I24
sS'restoran'
p888
I15
sS'diner'
p889
I70
sS'anything'
p890
I80
sS"mcdonald's"
p891
I4
sS'meal'
p892
I230
sS'range'
p893
I85
sS'afternoon'
p894
I21
sS'chow'
p895
I15
sS'block'
p896
I4
sS'milvia'
p897
I15
sS'saul'
p898
I16
sS'weather'
p899
I8
sS'gary'
p900
I12
sS'bombay'
p901
I9
sS'gramma'
p902
I8
sS'mississippi'
p903
I11
sS'computer'
p904
I58
sS'val'
p905
I11
sS'spam'
p906
I4
sS'mastro'
p907
I6
sS'lot'
p908
I66
sS'brazilian'
p909
I2
sS'blondie'
p910
I42
sS'spicy'
p911
I12
sS'north'
p912
I64
sS'berp'
p913
I13
sS'offering'
p914
I10
sS'bus'
p915
I12
sS'eater'
p916
I19
sS'russian'
p917
I3
sS'nakapan'
p918
I35
sS'pavilion'
p919
I10
sS'peralta'
p920
I4
sS'maximum'
p921
I3
sS'limit'
p922
I8
sS'howbout'
p923
I39
sS'cake'
p924
I6
sS'seafood'
p925
I74
sg42
I82
sS'milano'
p926
I26
sS'am'
p927
I52
sS'pie'
p928
I4
sS'doesn'
p929
I5
sS'dog'
p930
I12
sS'inn'
p931
I25
sS'file'
p932
I6
sS'ay'
p933
I31
sS'cafe'
p934
I595
sS'campus'
p935
I53
sS'ivre'
p936
I6
sS'cream'
p937
I48
sS'vasiliki'
p938
I3
sS'parlor'
p939
I4
sS'roll'
p940
I7
sS'junk'
p941
I5
sS'ham'
p942
I5
sS'solano'
p943
I6
sS'monday'
p944
I25
sS"o'clock"
p945
I25
sS'eiffel'
p946
I90
sS'reservation'
p947
I32
sS'weekend'
p948
I108
sS'potato'
p949
I3
sS'age'
p950
I5
sS'vietnam'
p951
I35
sS'time'
p952
I64
ssS'FW'
p953
(dp954
S'cheval'
p955
I18
sS'kirala'
p956
I16
sS'venezia'
p957
I2
sS'close'
p958
I6
sS'cactus'
p959
I7
sS'icsi'
p960
I6
sS'ivre'
p961
I57
sS'le'
p962
I75
sS'taqueria'
p963
I42
sS'val'
p964
I22
sS'la'
p965
I58
sS'caramba'
p966
I42
sS'caffe'
p967
I6
sS'de'
p968
I12
sS'fiesta'
p969
I20
sS'mario'
p970
I20
sS'fe'
p971
I18
sS'santa'
p972
I7
sS'berkeley'
p973
I54
sS'thai'
p974
I50
sS'maharani'
p975
I20
sS'viva'
p976
I35
sS'bateau'
p977
I57
sS'mediterranee'
p978
I16
sS'nefeli'
p979
I6
sS'manuel'
p980
I20
sS'vegi'
p981
I36
ssS'POS'
p982
(dp983
S"'s"
p984
I922
sS"'"
p985
I72
ssS'TO'
p986
(dp987
S'to'
p988
I4813
sS'thai'
p989
I4
sS'na'
p990
I363
ssS'PRP'
p991
(dp992
S'me'
p993
I1989
sS'we'
p994
I97
sS"'s"
p995
I426
sS'her'
p996
I6
sS'i'
p997
I7905
sS'it'
p998
I979
sS'one'
p999
I1
sS'them'
p1000
I4
sS'she'
p1001
I10
sS'they'
p1002
I164
sS'you'
p1003
I1279
sS"yoshi's"
p1004
I6
sS'icsi'
p1005
I22
sS'icksee'
p1006
I33
sS'he'
p1007
I27
ssS'RB'
p1008
(dp1009
S'all'
p1010
I27
sS'particularly'
p1011
I4
sS'just'
p1012
I122
sS'over'
p1013
I3
sS'mainly'
p1014
I9
sS'soon'
p1015
I8
sS'not'
p1016
I939
sS'farther'
p1017
I16
sS'still'
p1018
I33
sS'yet'
p1019
I7
sS'before'
p1020
I24
sS'pasand'
p1021
I8
sS'also'
p1022
I78
sS'somewhere'
p1023
I93
sS'actually'
p1024
I41
sS'better'
p1025
I5
sS'only'
p1026
I95
sS'pretty'
p1027
I23
sS'real'
p1028
I2
sS'then'
p1029
I38
sS'around'
p1030
I140
sS'very'
p1031
I213
sS'spats'
p1032
I5
sS'now'
p1033
I127
sS'always'
p1034
I9
sS'reasonably'
p1035
I25
sS'either'
p1036
I5
sS'right'
p1037
I63
sS'upstairs'
p1038
I6
sS'back'
p1039
I82
sS'past'
p1040
I21
sS'jupiter'
p1041
I4
sS'anyways'
p1042
I17
sS'mediumly'
p1043
I3
sS'further'
p1044
I36
sS'really'
p1045
I145
sS'even'
p1046
I9
sS'away'
p1047
I218
sS'someplace'
p1048
I25
sS'outside'
p1049
I4
sS'ever'
p1050
I4
sS'never'
p1051
I3
sS'however'
p1052
I8
sS'here'
p1053
I171
sS'quite'
p1054
I6
sS'by'
p1055
I8
sS'about'
p1056
I188
sS'ahead'
p1057
I4
sS'of'
p1058
I15
sS'south'
p1059
I6
sS'nearby'
p1060
I36
sS'already'
p1061
I32
sS'afterwards'
p1062
I6
sS'previously'
p1063
I3
sS'tuesday'
p1064
I3
sS'inexpensively'
p1065
I3
sS'long'
p1066
I15
sS'primarily'
p1067
I12
sS'venezia'
p1068
I5
sS'approximately'
p1069
I3
sS'late'
p1070
I22
sS'there'
p1071
I168
sS'moderately'
p1072
I11
sS'fast'
p1073
I4
sS'next'
p1074
I28
sS'much'
p1075
I31
sS'too'
p1076
I179
sS'that'
p1077
I2
sS'exactly'
p1078
I5
sS'else'
p1079
I29
sS'everywhere'
p1080
I16
sS'july'
p1081
I12
sS'maximally'
p1082
I4
sS'downstairs'
p1083
I6
sS'kind'
p1084
I15
sS'up'
p1085
I29
sS"n't"
p1086
I795
sS'matter'
p1087
I9
sS'near'
p1088
I36
sS'anywhere'
p1089
I156
sS'howbout'
p1090
I16
sS'anytime'
p1091
I11
sg42
I5
sS'as'
p1092
I53
sS'at'
p1093
I4
sS'close'
p1094
I30
sS'ay'
p1095
I68
sS'preferably'
p1096
I4
sS'again'
p1097
I269
sS'hong'
p1098
I5
sS'italy'
p1099
I3
sS'anymore'
p1100
I14
sS'no'
p1101
I14
sS'far'
p1102
I194
sS'instead'
p1103
I36
sS'out'
p1104
I4
sS'fairly'
p1105
I19
sS'maybe'
p1106
I94
sS'later'
p1107
I3
sS'well'
p1108
I7
sS'together'
p1109
I12
sS'definitely'
p1110
I4
sS'so'
p1111
I307
sS'alfredo'
p1112
I3
sS'first'
p1113
I4
sS'once'
p1114
I1
ssS':'
p1115
(dp1116
S';'
p1117
I5
ssS'NNS'
p1118
(dp1119
S"bucci's"
p1120
I19
sS'mexican'
p1121
I1
sS'chinese'
p1122
I14
sS'desserts'
p1123
I5
sS'burritos'
p1124
I19
sS'thanks'
p1125
I4
sS'questions'
p1126
I3
sS'signs'
p1127
I3
sS'stores'
p1128
I13
sS'tuesdays'
p1129
I5
sS'vietnamese'
p1130
I1
sS"joshu-ya's"
p1131
I3
sS'weekends'
p1132
I27
sS'parents'
p1133
I12
sS"gertie's"
p1134
I15
sS'weeks'
p1135
I14
sS'waiters'
p1136
I5
sS'exports'
p1137
I4
sS"kip's"
p1138
I12
sS'milkshakes'
p1139
I3
sS'tacos'
p1140
I3
sS'ones'
p1141
I27
sS'spats'
p1142
I55
sS'chips'
p1143
I31
sS"norteno's"
p1144
I6
sS"augusta's"
p1145
I28
sS'sundays'
p1146
I42
sS'strada'
p1147
I4
sS'panini'
p1148
I18
sS'steps'
p1149
I8
sS'restaurants'
p1150
I1065
sS"marie's"
p1151
I3
sS'people'
p1152
I12
sS"maxim's"
p1153
I4
sS'seats'
p1154
I14
sS'japanese'
p1155
I13
sS'meters'
p1156
I58
sS"cambodiana's"
p1157
I10
sS'blocks'
p1158
I160
sS'cactus'
p1159
I13
sS'spaghetti'
p1160
I19
sS"spenger's"
p1161
I14
sS'drinks'
p1162
I18
sS'taqueria'
p1163
I77
sS'madras'
p1164
I47
sS"manuel's"
p1165
I6
sS'miles'
p1166
I305
sS'weeknights'
p1167
I6
sS'cancun'
p1168
I5
sS'bistro'
p1169
I8
sS"carl's"
p1170
I7
sS'pancakes'
p1171
I14
sS'hours'
p1172
I46
sS'kilometers'
p1173
I20
sS"jupiter's"
p1174
I5
sS"oliveto's"
p1175
I8
sS"fred's"
p1176
I10
sS'items'
p1177
I5
sS'dollars'
p1178
I1552
sS'cafes'
p1179
I6
sS"mcdonald's"
p1180
I8
sS'days'
p1181
I6
sS'american'
p1182
I1
sS'lasagna'
p1183
I1
sS'mykonos'
p1184
I7
sS'entrees'
p1185
I13
sS'informations'
p1186
I6
sS'evans'
p1187
I3
sS'feet'
p1188
I6
sS'icsi'
p1189
I202
sS'names'
p1190
I7
sS'salsa'
p1191
I4
sS"lalime's"
p1192
I3
sS'donuts'
p1193
I5
sS'vegetables'
p1194
I10
sS'buffets'
p1195
I4
sS'caramba'
p1196
I14
sS'mondays'
p1197
I11
sS"apple's"
p1198
I12
sS'mornings'
p1199
I9
sS'margaritas'
p1200
I12
sS'giovanni'
p1201
I34
sS'prices'
p1202
I4
sS'thai'
p1203
I8
sS"mel's"
p1204
I12
sS'places'
p1205
I90
sS'fries'
p1206
I3
sS'choices'
p1207
I3
sS'fruits'
p1208
I4
sS"edy's"
p1209
I21
sS'minutes'
p1210
I844
sS'fettucini'
p1211
I5
sg42
I46
sS"ann's"
p1212
I7
sS'omelets'
p1213
I30
sS'shilpa'
p1214
I1
sS'snacks'
p1215
I6
sS'cents'
p1216
I17
sS'reservations'
p1217
I25
sS'sushi'
p1218
I8
sS'foods'
p1219
I15
sS'bucks'
p1220
I107
sS'hamburgers'
p1221
I25
sS'nights'
p1222
I3
sS'dishes'
p1223
I14
sS'dinners'
p1224
I9
sS'salads'
p1225
I7
sS'waitresses'
p1226
I4
sS"king's"
p1227
I4
sS"shilpa's"
p1228
I5
sS'sandwiches'
p1229
I34
sS'skates'
p1230
I14
sS'plates'
p1231
I3
sS'kinds'
p1232
I9
sS'eggs'
p1233
I6
sS"guerrero's"
p1234
I14
sS'persons'
p1235
I3
sS'fridays'
p1236
I4
sS'services'
p1237
I7
sS'croissants'
p1238
I4
sS'semolians'
p1239
I8
sS'friends'
p1240
I20
sS'meals'
p1241
I8
sS'types'
p1242
I8
sS'jones'
p1243
I32
sS"lilly's"
p1244
I6
sS"val's"
p1245
I3
sS'nefeli'
p1246
I12
sS'burgers'
p1247
I7
sS'costs'
p1248
I34
sS'things'
p1249
I5
sS"sujatha's"
p1250
I12
ssS'HYPH'
p1251
(dp1252
S'-'
p1253
I793
ssS'WRB'
p1254
(dp1255
S'when'
p1256
I73
sS'how'
p1257
I595
sS'howbout'
p1258
I5
sS'where'
p1259
I443
sS'why'
p1260
I23
sg42
I3
ssS'VB'
p1261
(dp1262
S'mexican'
p1263
I1
sS'help'
p1264
I31
sS'show'
p1265
I400
sS'german'
p1266
I7
sS'vary'
p1267
I6
sS'bring'
p1268
I11
sS'go'
p1269
I1117
sS'edy'
p1270
I8
sS'find'
p1271
I168
sS'pharmacy'
p1272
I3
sS'lococo'
p1273
I5
sS'return'
p1274
I7
sS'get'
p1275
I239
sS'prefer'
p1276
I18
sS'lunch'
p1277
I4
sS'know'
p1278
I531
sS'like'
p1279
I2706
sS'list'
p1280
I47
sS'remove'
p1281
I4
sS'try'
p1282
I151
sS'mean'
p1283
I5
sS'see'
p1284
I165
sS'cost'
p1285
I140
sS'appear'
p1286
I5
sS'got'
p1287
I1
sS'sun-hong-kong'
p1288
I6
sS'be'
p1289
I975
sS'drink'
p1290
I33
sS'do'
p1291
I8
sS'friday'
p1292
I2
sS'let'
p1293
I439
sS'ask'
p1294
I9
sS'come'
p1295
I18
sS'change'
p1296
I22
sS'care'
p1297
I130
sS'plearn'
p1298
I16
sS'restaurant'
p1299
I3
sS'keep'
p1300
I4
sS'range'
p1301
I2
sS'restate'
p1302
I4
sS'think'
p1303
I18
sS'confuse'
p1304
I8
sS'walk'
p1305
I99
sS'put'
p1306
I4
sS'bombay'
p1307
I10
sS'speak'
p1308
I3
sS'wan'
p1309
I66
sS'use'
p1310
I7
sS'log'
p1311
I9
sS'visit'
p1312
I9
sS'start'
p1313
I726
sS'call'
p1314
I4
sS'recommend'
p1315
I21
sS'wait'
p1316
I3
sS'tell'
p1317
I1065
sS'listen'
p1318
I3
sS'shell'
p1319
I8
sS'serve'
p1320
I67
sS'excuse'
p1321
I11
sS'understand'
p1322
I23
sS'eat'
p1323
I1421
sS'extend'
p1324
I3
sS'look'
p1325
I41
sS'require'
p1326
I4
sS'work'
p1327
I12
sS'up'
p1328
I3
sS'matter'
p1329
I241
sS'howbout'
p1330
I2
sS'manuel'
p1331
I5
sS'display'
p1332
I10
sg42
I17
sS'want'
p1333
I162
sS'give'
p1334
I317
sS'mind'
p1335
I44
sS'say'
p1336
I119
sS'have'
p1337
I1224
sS'need'
p1338
I26
sS'crash'
p1339
I12
sS'breakfast'
p1340
I10
sS'campus'
p1341
I8
sS'sell'
p1342
I7
sS'hong'
p1343
I9
sS'sit'
p1344
I4
sS'suggest'
p1345
I4
sS'make'
p1346
I94
sS'take'
p1347
I68
sS'pizza'
p1348
I3
sS'eiffel'
p1349
I6
sS'stay'
p1350
I4
sS'cuban'
p1351
I5
sS'burrito'
p1352
I2
sS'remember'
p1353
I10
sS'drive'
p1354
I71
sS'spend'
p1355
I619
sS'switch'
p1356
I1
sS'pay'
p1357
I97
sS'hear'
p1358
I9
sS'travel'
p1359
I210
ssS'END'
p1360
(dp1361
S'<END>'
p1362
I15711
ssS'CC'
p1363
(dp1364
S'and'
p1365
I1286
sS'or'
p1366
I625
sS'but'
p1367
I271
sS'either'
p1368
I37
ssS'LS'
p1369
(dp1370
S'la'
p1371
I9
ssS'PDT'
p1372
(dp1373
S'all'
p1374
I29
sS'half'
p1375
I95
ssS'RBS'
p1376
(dp1377
S'most'
p1378
I25
sS'best'
p1379
I16
sS'least'
p1380
I1
ssS'RBR'
p1381
(dp1382
S'closer'
p1383
I6
sS'less'
p1384
I20
sS'nefeli'
p1385
I6
sS'louder'
p1386
I3
sS'further'
p1387
I7
sS'ivre'
p1388
I12
sS'more'
p1389
I377
ssS'CD'
p1390
(dp1391
S'twelve'
p1392
I51
sS'seven'
p1393
I55
sS'ten'
p1394
I910
sS'fifty'
p1395
I145
sS'four'
p1396
I46
sS'ninety'
p1397
I17
sS'fifteen'
p1398
I340
sS'thirteen'
p1399
I8
sS'icsi'
p1400
I5
sS'twenty'
p1401
I536
sS'six'
p1402
I91
sS'two'
p1403
I167
sS'eleven'
p1404
I9
sS'hundred'
p1405
I139
sS'thousand'
p1406
I22
sS'million'
p1407
I3
sS'fourteen'
p1408
I13
sS'five'
p1409
I676
sS'sixty'
p1410
I32
sS'thai'
p1411
I7
sS'one'
p1412
I242
sS'nineteen'
p1413
I52
sS'seventy'
p1414
I8
sS'forty'
p1415
I79
sS'thirty'
p1416
I266
sS'nine'
p1417
I14
sS'three'
p1418
I85
sS'eight'
p1419
I133
sg42
I6
ssS'START'
p1420
(dp1421
S'<START>'
p1422
I15711
ssS'EX'
p1423
(dp1424
S'there'
p1425
I441
ssS'IN'
p1426
(dp1427
S'because'
p1428
I21
sS'into'
p1429
I15
sS'within'
p1430
I292
sS'while'
p1431
I3
sS'as'
p1432
I65
sS'through'
p1433
I12
sS'at'
p1434
I671
sS'in'
p1435
I964
sS'inn'
p1436
I8
sS'if'
p1437
I141
sS'from'
p1438
I873
sS'for'
p1439
I1497
sS'na'
p1440
I14
sS'since'
p1441
I4
sS'except'
p1442
I5
sS'per'
p1443
I38
sS'by'
p1444
I39
sS'to'
p1445
I922
sS'outside'
p1446
I2
sS'between'
p1447
I160
sS'before'
p1448
I2
sS'cause'
p1449
I7
sS'over'
p1450
I68
sS'after'
p1451
I36
sS'around'
p1452
I73
sS'that'
p1453
I93
sS'under'
p1454
I135
sS'although'
p1455
I4
sS'during'
p1456
I42
sS'thai'
p1457
I10
sS'with'
p1458
I211
sS'than'
p1459
I1107
sS'on'
p1460
I1554
sS'about'
p1461
I2633
sS'off'
p1462
I9
sS'like'
p1463
I112
sS'whether'
p1464
I3
sS'of'
p1465
I1112
sS'up'
p1466
I75
sS'until'
p1467
I8
sS'near'
p1468
I101
sS'without'
p1469
I3
sS'so'
p1470
I110
sS'below'
p1471
I7
sS'italian'
p1472
I4
sS'once'
p1473
I10
ssS'MD'
p1474
(dp1475
S'wan'
p1476
I7
sS"'ll"
p1477
I92
sS'monday'
p1478
I5
sS'would'
p1479
I1685
sS'shall'
p1480
I5
sS'wo'
p1481
I10
sS'could'
p1482
I270
sS'should'
p1483
I534
sS'will'
p1484
I56
sS'may'
p1485
I35
sS"'d"
p1486
I1262
sS'can'
p1487
I953
sS'need'
p1488
I3
sS'might'
p1489
I16
sS'ca'
p1490
I7
sS'must'
p1491
I15
ssS'JJS'
p1492
(dp1493
S'nearest'
p1494
I10
sS'closest'
p1495
I29
sS'greasiest'
p1496
I3
sS'cheapest'
p1497
I49
sS'least'
p1498
I2
sS'most'
p1499
I106
sg42
I1
sS'best'
p1500
I156
sS'farthest'
p1501
I5
ssS'JJR'
p1502
(dp1503
S'closer'
p1504
I10
sS'kosher'
p1505
I9
sS'longer'
p1506
I5
sS'less'
p1507
I493
sS'spenger'
p1508
I6
sS'thai'
p1509
I7
sS'cheaper'
p1510
I44
sS'better'
p1511
I20
sS'lobster'
p1512
I4
sS'jupiter'
p1513
I2
sS'lox'
p1514
I4
sg42
I1
sS'easier'
p1515
I12
sS'more'
p1516
I1066
ssS'UH'
p1517
(dp1518
S'mexican'
p1519
I7
sS'hunan'
p1520
I1
sS'chinese'
p1521
I7
sS'tuesday'
p1522
I2
sS'yeah'
p1523
I34
sS'hell'
p1524
I7
sS'yes'
p1525
I18
sS'no'
p1526
I233
sS'please'
p1527
I642
sS'sorry'
p1528
I4
sS'lilly'
p1529
I7
sS'whoa'
p1530
I6
sS'oops'
p1531
I14
sS'okay'
p1532
I512
sS'friday'
p1533
I25
sS'huh'
p1534
I9
sS'ooh'
p1535
I10
sS'hi'
p1536
I15
sS'nakapan'
p1537
I2
sS'bye'
p1538
I9
sS'like'
p1539
I95
sS'oh'
p1540
I226
sS'well'
p1541
I106
sS'um'
p1542
I538
sS'american'
p1543
I4
sS'uh'
p1544
I1623
sS'ultra'
p1545
I6
sS'hello'
p1546
I39
sg42
I2
ssS'NNP'
p1547
(dp1548
S'bucci'
p1549
I12
sS'mexican'
p1550
I4
sS'oliveto'
p1551
I6
sS'tuesday'
p1552
I63
sS'nadine'
p1553
I4
sS'chez'
p1554
I2
sS'sujatha'
p1555
I26
sS'venezia'
p1556
I2
sS'taiwan'
p1557
I1
sS'edy'
p1558
I2
sS'tao'
p1559
I10
sS'taqueria'
p1560
I19
sS'val'
p1561
I9
sS'la'
p1562
I17
sS'juan'
p1563
I12
sS'casa-de-eva'
p1564
I2
sS'panisse'
p1565
I2
sS'lilly'
p1566
I11
sS'sun-hong-kong'
p1567
I18
sS'mary'
p1568
I6
sS'carte'
p1569
I10
sS'cambodiana'
p1570
I4
sS'lococo'
p1571
I14
sS'friday'
p1572
I16
sS'lalime'
p1573
I2
sS'monday'
p1574
I130
sS'mel'
p1575
I7
sS'de'
p1576
I6
sS'ristorante'
p1577
I6
sS'blondie'
p1578
I14
sS'california'
p1579
I5
sS'joe'
p1580
I5
sS'santa'
p1581
I6
sS'berkeley'
p1582
I8
sS'm__s__g'
p1583
I1
sS'joshu-ya'
p1584
I23
sS'plearn'
p1585
I1
sS'vasiliki'
p1586
I10
sS'smokey'
p1587
I5
sS'bette'
p1588
I21
sS'zachary'
p1589
I27
sS'san__francisco'
p1590
I10
sS'wednesday'
p1591
I120
sS'kentucky'
p1592
I3
sS'yoshi'
p1593
I4
sS'norteno'
p1594
I20
sS'english'
p1595
I20
sS'manuel'
p1596
I8
sS'saul'
p1597
I2
sS'sushi'
p1598
I1
sg42
I4
ss.