(dp0
S'PRP$'
p1
I272
sS'VBG'
p2
I1011
sS'VBD'
p3
I569
sS'VBN'
p4
I399
sS'VBP'
p5
I5889
sS'WDT'
p6
I594
sS'JJ'
p7
I7935
sS'WP'
p8
I754
sS'VBZ'
p9
I2426
sS'DT'
p10
I8539
sS'RP'
p11
I982
sS'NN'
p12
I24193
sS'FW'
p13
I728
sS'POS'
p14
I994
sS'TO'
p15
I5180
sS'PRP'
p16
I12948
sS'RB'
p17
I6004
sS':'
p18
I5
sS'NNS'
p19
I5892
sS'HYPH'
p20
I793
sS'WRB'
p21
I1142
sS'VB'
p22
I14519
sS'END'
p23
I15711
sS'CC'
p24
I2219
sS'LS'
p25
I9
sS'PDT'
p26
I124
sS'RBS'
p27
I42
sS'RBR'
p28
I431
sS'CD'
p29
I4157
sS'START'
p30
I15711
sS'EX'
p31
I441
sS'IN'
p32
I13275
sS'MD'
p33
I4955
sS'JJS'
p34
I361
sS'JJR'
p35
I1683
sS'UH'
p36
I4203
sS'NNP'
p37
I741
s.