(dp0
S'PRP$'
p1
(dp2
S'END'
p3
I3
sS'DT'
p4
I8
sS'NNS'
p5
I32
sS'JJ'
p6
I34
sS'NN'
p7
I195
ssS'VBG'
p8
(dp9
S'PRP$'
p10
I3
sg3
I27
sS'RB'
p11
I57
sS'NN'
p12
I322
sS'JJR'
p13
I18
sS'RP'
p14
I9
sS'TO'
p15
I35
sS'UH'
p16
I16
sS'JJ'
p17
I68
sS'IN'
p18
I393
sS'VBG'
p19
I7
sS'DT'
p20
I44
sS'CD'
p21
I2
sS'HYPH'
p22
I10
ssS'VBD'
p23
(dp24
S'WRB'
p25
I2
sS'MD'
p26
I7
sS'PRP$'
p27
I5
sS'VBG'
p28
I17
sS'JJ'
p29
I17
sS'NN'
p30
I55
sS'RBS'
p31
I16
sS'JJR'
p32
I21
sS'CD'
p33
I12
sS'VB'
p34
I14
sS'TO'
p35
I35
sg3
I11
sS'PRP'
p36
I70
sS'RB'
p37
I96
sS'IN'
p38
I46
sS'RP'
p39
I19
sS'DT'
p40
I102
sS'NNS'
p41
I9
sS'VBZ'
p42
I8
sS'UH'
p43
I7
ssS'VBN'
p44
(dp45
S'VB'
p46
I1
sg3
I109
sS'NN'
p47
I124
sS'CC'
p48
I5
sS'HYPH'
p49
I4
sS'CD'
p50
I5
sS'TO'
p51
I2
sS'UH'
p52
I14
sS'RB'
p53
I12
sS'IN'
p54
I58
sS'DT'
p55
I50
sS'NNS'
p56
I8
sS'PRP'
p57
I7
ssS'VBP'
p58
(dp59
S'PRP$'
p60
I13
sg8
I326
sg44
I67
sS'JJ'
p61
I681
sS'WP'
p62
I2
sS'VBZ'
p63
I21
sS'DT'
p64
I653
sS'RP'
p65
I15
sS'NN'
p66
I276
sS'POS'
p67
I11
sS'TO'
p68
I1525
sS'PRP'
p69
I864
sS'RB'
p70
I759
sS'NNS'
p71
I103
sS'VB'
p72
I8
sg3
I67
sS'PDT'
p73
I2
sS'CD'
p74
I32
sS'EX'
p75
I233
sS'IN'
p76
I123
sS'MD'
p77
I19
sS'JJR'
p78
I41
sS'UH'
p79
I48
ssS'WDT'
p80
(dp81
S'WRB'
p82
I2
sS'NN'
p83
I92
sS'VBD'
p84
I13
sS'CD'
p85
I13
sS'VBP'
p86
I105
sg3
I1
sS'PRP'
p87
I42
sS'IN'
p88
I34
sS'VBZ'
p89
I237
sS'DT'
p90
I7
sS'NNS'
p91
I45
sS'UH'
p92
I3
ssS'HYPH'
p93
(dp94
S'VBG'
p95
I69
sS'NN'
p96
I568
sS'FW'
p97
I82
sS'JJ'
p98
I2
sS'RP'
p99
I9
sS'NNS'
p100
I20
sS'NNP'
p101
I43
ssS'JJ'
p102
(dp103
S'VBG'
p104
I12
sS'FW'
p105
I8
sS'VBN'
p106
I15
sS'VBP'
p107
I3
sS'JJ'
p108
I434
sS'VBZ'
p109
I68
sS'DT'
p110
I22
sS'NN'
p111
I4407
sS'POS'
p112
I23
sS'TO'
p113
I311
sS'HYPH'
p114
I42
sS'RB'
p115
I135
sS'NNS'
p116
I610
sS'PRP'
p117
I120
sg3
I748
sS'CC'
p118
I264
sS'CD'
p119
I30
sS'EX'
p120
I3
sS'IN'
p121
I570
sS'MD'
p122
I9
sS'JJS'
p123
I9
sS'JJR'
p124
I20
sS'UH'
p125
I48
sS'NNP'
p126
I24
ssS'WP'
p127
(dp128
S'MD'
p129
I17
sS'RB'
p130
I1
sS'NN'
p131
I69
sS'VBP'
p132
I152
sS'PRP'
p133
I39
sS'JJ'
p134
I12
sS'IN'
p135
I224
sS'VBZ'
p136
I198
sS'DT'
p137
I1
sS'NNS'
p138
I41
ssS'VBZ'
p139
(dp140
S'PRP$'
p141
I5
sS'VBG'
p142
I48
sS'FW'
p143
I20
sS'VBN'
p144
I79
sS'JJ'
p145
I327
sS'WP'
p146
I13
sS'VBZ'
p147
I8
sS'DT'
p148
I538
sS'NN'
p149
I175
sS'TO'
p150
I26
sS'PRP'
p151
I67
sS'RB'
p152
I449
sS'NNS'
p153
I50
sS'NNP'
p154
I70
sS'VB'
p155
I37
sg3
I74
sS'RBR'
p156
I3
sS'CD'
p157
I49
sS'EX'
p158
I136
sS'IN'
p159
I119
sS'JJS'
p160
I11
sS'JJR'
p161
I39
sS'UH'
p162
I83
ssS'DT'
p163
(dp164
S'VBG'
p165
I43
sS'FW'
p166
I7
sS'VBN'
p167
I17
sS'VBP'
p168
I19
sS'WDT'
p169
I3
sg102
I1993
sS'VBZ'
p170
I105
sS'DT'
p171
I37
sS'RP'
p172
I2
sS'NN'
p173
I4867
sS'VBD'
p174
I5
sS'POS'
p175
I9
sg93
I58
sS'RB'
p176
I77
sS'NNS'
p177
I284
sS'NNP'
p178
I22
sS'VB'
p179
I9
sg3
I80
sS'RBS'
p180
I18
sS'RBR'
p181
I24
sS'CD'
p182
I126
sS'PRP'
p183
I28
sS'IN'
p184
I45
sS'MD'
p185
I59
sS'JJS'
p186
I187
sS'JJR'
p187
I306
sS'UH'
p188
I109
ssS'RP'
p189
(dp190
S'VB'
p191
I8
sg3
I618
sS'NN'
p192
I30
sS'CC'
p193
I15
sS'JJR'
p194
I5
sS'CD'
p195
I3
sS'TO'
p196
I17
sS'UH'
p197
I37
sS'RB'
p198
I19
sS'IN'
p199
I214
sS'DT'
p200
I16
ssg111
(dp201
S'VBG'
p202
I41
sS'VBD'
p203
I10
sS'VBN'
p204
I51
sS'VBP'
p205
I207
sS'WDT'
p206
I294
sS'JJ'
p207
I360
sS'WP'
p208
I18
sS'VBZ'
p209
I524
sS'DT'
p210
I202
sS'RP'
p211
I15
sS'NN'
p212
I4295
sS'FW'
p213
I56
sS'POS'
p214
I578
sS'TO'
p215
I255
sS'PRP'
p216
I371
sS'RB'
p217
I851
sS':'
p218
I5
sS'NNS'
p219
I426
sS'HYPH'
p220
I524
sS'WRB'
p221
I59
sS'VB'
p222
I117
sg3
I8479
sS'CC'
p223
I1162
sS'RBR'
p224
I27
sS'CD'
p225
I54
sS'EX'
p226
I10
sS'IN'
p227
I4150
sS'MD'
p228
I396
sS'JJR'
p229
I98
sS'UH'
p230
I545
sS'NNP'
p231
I13
ssS'FW'
p232
(dp233
S'VB'
p234
I2
sg3
I123
sS'NN'
p235
I106
sS'FW'
p236
I370
sS'POS'
p237
I62
sS'VBN'
p238
I13
sS'VBP'
p239
I12
sS'HYPH'
p240
I29
sS'JJ'
p241
I11
ssS'POS'
p242
(dp243
S'VB'
p244
I22
sS'WRB'
p245
I3
sS'NN'
p246
I584
sS'FW'
p247
I40
sS'CC'
p248
I5
sS'VBN'
p249
I5
sS'VBG'
p250
I16
sg3
I145
sS'UH'
p251
I14
sS'JJ'
p252
I68
sS'IN'
p253
I34
sS'VBZ'
p254
I41
sS'DT'
p255
I9
sS'NNS'
p256
I4
sS'PRP'
p257
I4
ssS'TO'
p258
(dp259
S'VB'
p260
I4866
sg3
I1
sS'NN'
p261
I4
sS'CD'
p262
I217
sS'TO'
p263
I24
sS'UH'
p264
I27
sS'RB'
p265
I36
sS'IN'
p266
I1
sS'PRP'
p267
I4
ssS'PRP'
p268
(dp269
S'VBG'
p270
I16
sg23
I398
sS'VBN'
p271
I5
sg58
I4172
sS'WDT'
p272
I13
sS'JJ'
p273
I145
sS'WP'
p274
I14
sg3
I153
sS'DT'
p275
I462
sS'RP'
p276
I7
sS'NN'
p277
I166
sS'TO'
p278
I73
sS'PRP'
p279
I84
sS'RB'
p280
I268
sS'NNS'
p281
I17
sS'HYPH'
p282
I4
sS'VB'
p283
I1915
sS'WRB'
p284
I11
sS'CC'
p285
I9
sS'PDT'
p286
I16
sS'RBR'
p287
I336
sS'IN'
p288
I608
sS'MD'
p289
I3526
sS'JJR'
p290
I132
sS'UH'
p291
I81
sg139
I317
ssS'RB'
p292
(dp293
S'VBG'
p294
I25
sS'VBD'
p295
I31
sS'VBN'
p296
I41
sS'VBP'
p297
I125
sS'WDT'
p298
I25
sS'HYPH'
p299
I73
sS'JJ'
p300
I894
sS'WP'
p301
I12
sS'VBZ'
p302
I52
sS'DT'
p303
I215
sS'NN'
p304
I99
sS'FW'
p305
I6
sS'TO'
p306
I17
sS'PRP'
p307
I417
sS'RB'
p308
I727
sS'NNS'
p309
I7
sS'NNP'
p310
I10
sS'WRB'
p311
I16
sS'VB'
p312
I979
sg3
I823
sS'CC'
p313
I33
sS'RBS'
p314
I1
sS'RBR'
p315
I7
sS'CD'
p316
I316
sS'EX'
p317
I6
sS'IN'
p318
I691
sS'MD'
p319
I41
sS'JJR'
p320
I170
sS'UH'
p321
I145
ssg218
(dp322
S'NN'
p323
I5
ssg91
(dp324
S'VBG'
p325
I30
sS'VBD'
p326
I5
sS'VBN'
p327
I13
sS'VBP'
p328
I251
sS'WDT'
p329
I71
sS'JJ'
p330
I75
sS'VBZ'
p331
I67
sg3
I2942
sS'DT'
p332
I87
sS'NN'
p333
I142
sg242
I72
sS'TO'
p334
I9
sS'HYPH'
p335
I11
sS'RB'
p336
I319
sS'NNS'
p337
I36
sS'PRP'
p338
I87
sS'VB'
p339
I13
sS'WRB'
p340
I10
sS'CC'
p341
I260
sS'CD'
p342
I8
sS'EX'
p343
I10
sS'IN'
p344
I1204
sS'MD'
p345
I8
sS'JJR'
p346
I11
sS'UH'
p347
I151
ssS'NNP'
p348
(dp349
g3
I180
sS'NN'
p350
I48
sS'VBD'
p351
I6
sS'CC'
p352
I91
sS'FW'
p353
I12
sS'HYPH'
p354
I20
sS'POS'
p355
I213
sS'VBN'
p356
I3
sS'UH'
p357
I14
sS'PRP'
p358
I8
sS'RB'
p359
I35
sS'IN'
p360
I27
sS'WP'
p361
I4
sS'VBZ'
p362
I30
sS'DT'
p363
I7
sS'NNP'
p364
I43
ssS'VB'
p365
(dp366
S'PRP$'
p367
I13
sS'VBG'
p368
I89
sS'VBD'
p369
I3
sS'VBN'
p370
I81
sS'VBP'
p371
I22
sS'WDT'
p372
I7
sS'HYPH'
p373
I9
sS'JJ'
p374
I804
sg127
I62
sg3
I333
sS'DT'
p375
I1701
sg189
I884
sS'NN'
p376
I1157
sS'POS'
p377
I13
sg258
I2519
sS'PRP'
p378
I2515
sg292
I682
sS'NNS'
p379
I134
sS'NNP'
p380
I28
sS'VB'
p381
I38
sS'WRB'
p382
I84
sS'CC'
p383
I98
sS'PDT'
p384
I20
sS'RBR'
p385
I14
sS'CD'
p386
I335
sS'IN'
p387
I2094
sS'MD'
p388
I13
sS'JJS'
p389
I12
sS'JJR'
p390
I526
sS'UH'
p391
I210
sS'VBZ'
p392
I19
ssg382
(dp393
S'MD'
p394
I167
sS'VB'
p395
I18
sS'WRB'
p396
I3
sS'JJ'
p397
I125
sS'NN'
p398
I5
sS'TO'
p399
I12
sS'VBP'
p400
I29
sg3
I5
sS'PRP'
p401
I100
sS'RB'
p402
I72
sS'IN'
p403
I353
sS'VBZ'
p404
I227
sS'DT'
p405
I7
sS'NNS'
p406
I3
sS'EX'
p407
I16
ssg223
(dp408
S'MD'
p409
I23
sS'VB'
p410
I48
sS'WRB'
p411
I10
sS'RB'
p412
I244
sS'NN'
p413
I219
sS'VBD'
p414
I13
sS'CC'
p415
I10
sS'JJR'
p416
I74
sS'CD'
p417
I225
sS'PRP$'
p418
I42
sS'PRP'
p419
I508
sS'JJ'
p420
I193
sS'IN'
p421
I100
sS'VBG'
p422
I8
sS'DT'
p423
I197
sS'NNP'
p424
I53
sS'NNS'
p425
I112
sS'VBZ'
p426
I8
sS'UH'
p427
I132
ssS'LS'
p428
(dp429
S'HYPH'
p430
I9
ssg286
(dp431
S'DT'
p432
I124
ssg180
(dp433
S'DT'
p434
I7
sS'RB'
p435
I16
sS'JJ'
p436
I18
sS'CD'
p437
I1
ssg181
(dp438
g3
I3
sS'JJ'
p439
I61
sS'CC'
p440
I6
sS'PRP'
p441
I15
sS'RB'
p442
I11
sS'IN'
p443
I335
ssg316
(dp444
g3
I52
sS'NN'
p445
I340
sS'CC'
p446
I195
sS'CD'
p447
I288
sS'TO'
p448
I95
sS'VBP'
p449
I12
sS'WDT'
p450
I6
sS'PRP'
p451
I10
sS'IN'
p452
I38
sS'VBZ'
p453
I12
sS'NNS'
p454
I3087
sS'UH'
p455
I22
ssS'START'
p456
(dp457
S'PRP$'
p458
I14
sS'VBG'
p459
I21
sS'FW'
p460
I34
sS'VBP'
p461
I697
sg80
I148
sS'JJ'
p462
I301
sS'WP'
p463
I534
sS'VBZ'
p464
I426
sS'DT'
p465
I758
sS'RP'
p466
I14
sS'NN'
p467
I730
sS'VBD'
p468
I48
sS'TO'
p469
I57
sg268
I5523
sS'RB'
p470
I625
sS'NNS'
p471
I50
sS'NNP'
p472
I27
sS'VB'
p473
I1857
sS'WRB'
p474
I844
sS'CC'
p475
I24
sg428
I9
sS'PDT'
p476
I4
sS'RBR'
p477
I3
sS'CD'
p478
I210
sg3
I1
sS'EX'
p479
I7
sS'IN'
p480
I247
sS'MD'
p481
I579
sS'JJS'
p482
I9
sS'JJR'
p483
I94
sS'UH'
p484
I1816
ssg75
(dp485
S'JJ'
p486
I24
sS'NN'
p487
I11
sS'VBD'
p488
I21
sS'VBP'
p489
I6
sS'UH'
p490
I7
sS'RB'
p491
I9
sS'VBZ'
p492
I48
sS'DT'
p493
I315
ssg387
(dp494
S'PRP$'
p495
I142
sS'VBG'
p496
I215
sg232
I86
sS'VBN'
p497
I5
sS'VBP'
p498
I6
sS'WDT'
p499
I9
sS'JJ'
p500
I964
sS'WP'
p501
I2
sS'WRB'
p502
I2
sg163
I2764
sS'NN'
p503
I4425
sS'VBD'
p504
I9
sS'TO'
p505
I68
sS'PRP'
p506
I495
sS'RB'
p507
I156
sS'NNS'
p508
I758
sg348
I408
sS'VB'
p509
I23
sg3
I68
sS'PDT'
p510
I82
sS'RBS'
p511
I7
sS'RBR'
p512
I13
sS'CD'
p513
I1981
sS'EX'
p514
I9
sS'IN'
p515
I139
sS'JJS'
p516
I106
sS'JJR'
p517
I71
sS'UH'
p518
I262
ssg289
(dp519
S'MD'
p520
I4
sg365
I3944
sS'WRB'
p521
I4
sS'VBD'
p522
I2
sS'TO'
p523
I9
sS'PRP'
p524
I862
sS'RB'
p525
I125
sS'DT'
p526
I4
sS'UH'
p527
I1
ssg186
(dp528
S'MD'
p529
I8
sg3
I22
sS'RB'
p530
I21
sS'NN'
p531
I113
sS'JJS'
p532
I6
sS'CD'
p533
I109
sS'UH'
p534
I10
sS'JJ'
p535
I43
sS'IN'
p536
I13
sS'NNS'
p537
I16
ssg390
(dp538
S'MD'
p539
I7
sS'RP'
p540
I3
sS'JJ'
p541
I3
sS'NN'
p542
I270
sS'JJS'
p543
I16
sS'POS'
p544
I6
sS'JJR'
p545
I16
sS'TO'
p546
I4
sS'VBP'
p547
I8
sS'UH'
p548
I12
sS'RB'
p549
I4
sS'IN'
p550
I1249
sg3
I71
sS'NNS'
p551
I14
ssg230
(dp552
g1
I35
sS'VBG'
p553
I28
sS'VBD'
p554
I5
sS'VBN'
p555
I4
sS'VBP'
p556
I63
sS'WDT'
p557
I18
sS'JJ'
p558
I278
sS'WP'
p559
I93
sS'VBZ'
p560
I10
sS'DT'
p561
I202
sS'RP'
p562
I5
sS'NN'
p563
I294
sS'FW'
p564
I7
sS'POS'
p565
I7
sS'TO'
p566
I87
sS'PRP'
p567
I708
sS'RB'
p568
I198
sS'NNS'
p569
I26
sS'WRB'
p570
I92
sS'VB'
p571
I600
sg3
I572
sS'CC'
p572
I42
sS'RBR'
p573
I4
sS'CD'
p574
I141
sS'EX'
p575
I11
sS'IN'
p576
I166
sS'MD'
p577
I72
sS'JJS'
p578
I5
sS'JJR'
p579
I41
sS'UH'
p580
I389
ss.